(lp0
(lp1
I7
aI8
aa(lp2
F0.5170848464839881
aF0.4829151535160119
aa(lp3
(lp4
F1.0
aF1.0
aF1.0
aF1.0
aF1.0
aF1.0
aF1.0
aF1.0
aF1.0
aF1.0
aF1.0
aF1.0
aF1.0
aF1.0
aF1.0
aF1.0
aF1.0
aF1.0
aF1.0
aF1.0
aF1.0
aF1.0
aF1.0
aF1.0
aF1.0
aF1.0
aF1.0
aF1.0
aF1.0
aF1.0
aF0.999680766161213
aF0.9990422984836392
aF0.9963288108539505
aF0.9958499600957702
aF0.9948922585794094
aF0.9960095770151636
aF0.9976057462090981
aF0.9990422984836392
aF0.9995211492418197
aF1.0
aF1.0
aF1.0
aF1.0
aF0.9976057462090981
aF0.9795690343176376
aF0.9211492418196329
aF0.8376695929768555
aF0.7559457302474062
aF0.7144453312051078
aF0.6908220271348763
aF0.6889066241021549
aF0.7717478052673583
aF0.9027932960893855
aF0.978611332801277
aF0.9995211492418197
aF1.0
aF0.9992019154030327
aF0.967438148443735
aF0.8620909816440543
aF0.6510774142059058
aF0.3939345570630487
aF0.21755786113328013
aF0.1647246608140463
aF0.1564245810055866
aF0.13743016759776536
aF0.27438148443735033
aF0.6430965682362331
aF0.9192338387869115
aF0.9963288108539505
aF1.0
aF0.9990422984836392
aF0.9671189146049481
aF0.8679968076616121
aF0.6825219473264166
aF0.4893854748603352
aF0.47166799680766164
aF0.5889864325618516
aF0.6060654429369513
aF0.3189146049481245
aF0.23176376695929768
aF0.6421388667198723
aF0.9391859537110934
aF0.998244213886672
aF1.0
aF1.0
aF0.9886671987230646
aF0.9403032721468476
aF0.8346368715083798
aF0.7474860335195531
aF0.8392657621707901
aF0.9452513966480447
aF0.8458100558659218
aF0.3192338387869114
aF0.31667996807661614
aF0.7899441340782123
aF0.9766959297685555
aF0.9988826815642458
aF1.0
aF1.0
aF0.9977653631284916
aF0.9709497206703911
aF0.9192338387869115
aF0.8986432561851556
aF0.9388667198723064
aF0.9391859537110934
aF0.6384676775738228
aF0.18068635275339187
aF0.48300079808459695
aF0.8831604150039905
aF0.9784517158818835
aF0.998244213886672
aF1.0
aF1.0
aF0.9995211492418197
aF0.9889864325618516
aF0.9683958499600958
aF0.9473264166001596
aF0.9205107741420591
aF0.8116520351157223
aF0.33599361532322425
aF0.24852354349561054
aF0.708220271348763
aF0.9345570630486831
aF0.9849960095770152
aF0.9990422984836392
aF1.0
aF1.0
aF0.9998403830806065
aF0.9971268954509178
aF0.9929768555466879
aF0.9784517158818835
aF0.9174780526735834
aF0.6012769353551476
aF0.2601755786113328
aF0.5141260973663209
aF0.8732641660015962
aF0.9784517158818835
aF0.996488427773344
aF0.999680766161213
aF1.0
aF1.0
aF1.0
aF0.9993615323224262
aF0.9950518754988029
aF0.9650438946528332
aF0.792657621707901
aF0.45538707102952913
aF0.40558659217877097
aF0.7158818834796489
aF0.9323224261771748
aF0.9893056664006384
aF0.9993615323224262
aF0.9995211492418197
aF1.0
aF1.0
aF1.0
aF0.9958499600957702
aF0.9754189944134078
aF0.8697525937749402
aF0.6341580207501996
aF0.4652833200319234
aF0.5658419792498005
aF0.803511572226656
aF0.9511572226656025
aF0.9915403032721468
aF0.9993615323224262
aF0.9998403830806065
aF1.0
aF1.0
aF1.0
aF0.9937749401436552
aF0.9444533120510774
aF0.8062250598563447
aF0.6282521947326417
aF0.5848363926576217
aF0.6960893854748603
aF0.8528332003192338
aF0.9602553870710295
aF0.9926576217079011
aF0.9993615323224262
aF1.0
aF1.0
aF1.0
aF1.0
aF0.9993615323224262
aF0.9877094972067039
aF0.9570630486831604
aF0.9221069433359936
aF0.9114126097366321
aF0.9286512370311253
aF0.9610534716679968
aF0.9867517956903432
aF0.9979249800478851
aF0.9995211492418197
aF1.0
aF1.0
aa(lp5
F1.0
aF1.0
aF1.0
aF1.0
aF1.0
aF1.0
aF1.0
aF1.0
aF1.0
aF1.0
aF1.0
aF1.0
aF1.0
aF1.0
aF1.0
aF1.0
aF1.0
aF1.0
aF1.0
aF1.0
aF0.9994872671338233
aF0.9986327123568621
aF0.9988036233122544
aF0.9994872671338233
aF0.9993163561784311
aF0.9998290890446078
aF1.0
aF1.0
aF1.0
aF1.0
aF1.0
aF0.9986327123568621
aF0.9849598359254829
aF0.9309519740215347
aF0.786190394804307
aF0.6269013843787387
aF0.5973337890958811
aF0.7446590326439925
aF0.900529823961716
aF0.9748760895573406
aF0.9965817808921552
aF1.0
aF1.0
aF1.0
aF0.9974363356691164
aF0.9654759870107674
aF0.8340454623141343
aF0.5646897966159631
aF0.28371218595111947
aF0.19654759870107674
aF0.2191078448128525
aF0.3431891984276192
aF0.6135703298581439
aF0.8489147154332592
aF0.973679712869595
aF0.9993163561784311
aF1.0
aF0.9993163561784311
aF0.9861562126132285
aF0.9013843787386772
aF0.6665527260297385
aF0.3830114510340113
aF0.39582977268842934
aF0.6101521107502991
aF0.5744317210733207
aF0.3978807041531362
aF0.5270893864296702
aF0.7889249700905828
aF0.9562467954195863
aF0.9988036233122544
aF1.0
aF1.0
aF0.9830798154161682
aF0.8851478379764143
aF0.6320287130405059
aF0.3871133139634251
aF0.5161510852845668
aF0.7007349171081866
aF0.4862416680909246
aF0.34900017091095537
aF0.6111775764826526
aF0.867885831481798
aF0.9738506238249872
aF0.9993163561784311
aF1.0
aF0.9996581780892155
aF0.990770808408819
aF0.9306101521107503
aF0.7313279781233977
aF0.43257562809776107
aF0.27345752862758504
aF0.2922577337207315
aF0.2257733720731499
aF0.5267475645188857
aF0.841565544351393
aF0.9618868569475303
aF0.9935053836950949
aF0.9996581780892155
aF1.0
aF1.0
aF0.9981199794906853
aF0.9738506238249872
aF0.8545547769612032
aF0.49905998974534266
aF0.10904118954024954
aF0.08357545718680567
aF0.3722440608443001
aF0.791146812510682
aF0.9383011451034011
aF0.9832507263715604
aF0.9977781575799008
aF1.0
aF1.0
aF1.0
aF0.9986327123568621
aF0.9579559049735088
aF0.7716629635959665
aF0.3599384720560588
aF0.20458041360451204
aF0.310374294992309
aF0.5033327636301487
aF0.7778157579900872
aF0.9181336523671167
aF0.9733378909588105
aF0.9967526918475474
aF1.0
aF1.0
aF1.0
aF0.987865322167151
aF0.8760895573406255
aF0.5510169201845838
aF0.32780721244231753
aF0.5313621603144761
aF0.5392240642625192
aF0.519911126303196
aF0.7152623483165271
aF0.88634421466416
aF0.9644505212784139
aF0.9981199794906853
aF1.0
aF1.0
aF1.0
aF0.9781233977097932
aF0.7981541616817638
aF0.48419073662621775
aF0.38796786874038625
aF0.5245257220987866
aF0.4650487096222868
aF0.4782088531874893
aF0.6957784994018117
aF0.889933344727397
aF0.9740215347803794
aF0.9993163561784311
aF1.0
aF1.0
aF1.0
aF0.9882071440779354
aF0.8461801401469834
aF0.5622970432404717
aF0.2688429328319945
aF0.15945992138096052
aF0.26798837805503334
aF0.5392240642625192
aF0.8106306614253974
aF0.9518031105793882
aF0.9936762946504871
aF0.9998290890446078
aF1.0
aF1.0
aF1.0
aF1.0
aF0.984447103059306
aF0.9059989745342677
aF0.780550333276363
aF0.7289352247479064
aF0.8094342847376517
aF0.9237737138950607
aF0.9798325072637156
aF0.9962399589813707
aF0.9994872671338233
aF1.0
aF1.0
aF1.0
aF1.0
aF1.0
aF1.0
aF1.0
aF1.0
aF0.9998290890446078
aF1.0
aF1.0
aF1.0
aF1.0
aF1.0
aF1.0
aF1.0
aaa.