(lp0
(lp1
I2
aI5
aa(lp2
F0.5235960980754021
aF0.4764039019245979
aa(lp3
(lp4
F1.0
aF1.0
aF1.0
aF1.0
aF1.0
aF0.9998321584424303
aF1.0
aF0.9998321584424303
aF0.9998321584424303
aF1.0
aF1.0
aF1.0
aF1.0
aF1.0
aF1.0
aF1.0
aF1.0
aF0.9973145350788856
aF0.9827123195703256
aF0.9498153742866734
aF0.914065122524337
aF0.9038267875125882
aF0.9266532393420611
aF0.969452836522323
aF0.9954682779456193
aF0.9998321584424303
aF0.9998321584424303
aF1.0
aF1.0
aF1.0
aF0.99513259483048
aF0.9494796911715341
aF0.8126888217522659
aF0.6070829137294395
aF0.41943605236656595
aF0.34071836186639815
aF0.43789862369922794
aF0.6915072171869755
aF0.8934206109432695
aF0.9885867740852635
aF0.9996643168848607
aF1.0
aF1.0
aF0.9998321584424303
aF0.9793554884189325
aF0.8566633098355153
aF0.6609600537092984
aF0.4696206780798926
aF0.38469284994964753
aF0.35246727089627394
aF0.32846592816381337
aF0.46945283652232295
aF0.7578046324269889
aF0.9566968781470292
aF0.9998321584424303
aF1.0
aF1.0
aF0.999496475327291
aF0.9744880832494126
aF0.8600201409869084
aF0.7512588116817724
aF0.6941926821080899
aF0.7114803625377644
aF0.6693521315877812
aF0.4808660624370594
aF0.43554884189325277
aF0.7051023833501174
aF0.9390735146022156
aF1.0
aF1.0
aF1.0
aF0.9996643168848607
aF0.9879154078549849
aF0.94175897952333
aF0.9123867069486404
aF0.900973481033904
aF0.9075193017791205
aF0.7833165491775763
aF0.4845585767035918
aF0.43084927828130243
aF0.7324605572339711
aF0.9546827794561934
aF0.9986572675394427
aF1.0
aF1.0
aF0.9998321584424303
aF0.9953004363880497
aF0.9803625377643505
aF0.9521651560926485
aF0.9202752601544142
aF0.8402148371936892
aF0.6339375629405841
aF0.410204766700235
aF0.4909365558912387
aF0.8157099697885196
aF0.973313192346425
aF0.9937898623699228
aF0.9996643168848607
aF1.0
aF0.999496475327291
aF0.9859013091641491
aF0.9068479355488419
aF0.7777777777777778
aF0.6319234642497482
aF0.4637462235649547
aF0.33585095669687814
aF0.3591809331990601
aF0.5953340046995637
aF0.8571668345082243
aF0.9548506210137631
aF0.9806982208794898
aF0.9991607922121517
aF1.0
aF0.9969788519637462
aF0.9093655589123867
aF0.685464921114468
aF0.4837193689157435
aF0.3541456864719705
aF0.23313192346424974
aF0.24051695199731454
aF0.37378314870762
aF0.5861027190332326
aF0.7675394427660289
aF0.8648875461564284
aF0.9441087613293051
aF0.9988251090970124
aF1.0
aF0.9855656260490098
aF0.8029540114132259
aF0.5167841557569655
aF0.35565626049009735
aF0.27576367908694194
aF0.2465592480698221
aF0.2938905673044646
aF0.37428667338032895
aF0.46408190668009397
aF0.5877811346089292
aF0.7418596844578718
aF0.9236320913058074
aF0.9991607922121517
aF1.0
aF0.9865726753944276
aF0.8230949983215844
aF0.527190332326284
aF0.2880161127895267
aF0.2537764350453172
aF0.35532057737495804
aF0.4872440416247063
aF0.5323934206109433
aF0.5297079556898288
aF0.6275595837529372
aF0.8036253776435045
aF0.9563611950318899
aF0.9998321584424303
aF1.0
aF0.9983215844243034
aF0.9521651560926485
aF0.8185632762672037
aF0.684961396441759
aF0.6693521315877812
aF0.75730110775428
aF0.8251090970124203
aF0.8355152735817388
aF0.8360187982544478
aF0.8815038603558241
aF0.947129909365559
aF0.9941255454850622
aF1.0
aF1.0
aF1.0
aF0.9998321584424303
aF0.9974823766364552
aF0.9936220208123532
aF0.9917757636790869
aF0.9890902987579725
aF0.9892581403155422
aF0.9921114467942262
aF0.9949647532729103
aF0.9953004363880497
aF0.9984894259818731
aF0.9996643168848607
aF1.0
aF1.0
aF1.0
aF1.0
aF1.0
aF1.0
aF1.0
aF1.0
aF1.0
aF1.0
aF1.0
aF1.0
aF1.0
aF1.0
aF1.0
aa(lp5
F1.0
aF1.0
aF1.0
aF1.0
aF1.0
aF1.0
aF1.0
aF1.0
aF1.0
aF1.0
aF1.0
aF1.0
aF1.0
aF1.0
aF1.0
aF1.0
aF1.0
aF1.0
aF0.9998155321896329
aF0.9996310643792659
aF0.9988931931377975
aF0.9966795794133924
aF0.9952038369304557
aF0.9933591588267847
aF0.9955727725511898
aF0.9988931931377975
aF1.0
aF1.0
aF1.0
aF1.0
aF1.0
aF0.9946504334993543
aF0.9739900387382402
aF0.9169894853348091
aF0.8443091680501752
aF0.7830658550083011
aF0.750415052573326
aF0.7719977863862756
aF0.8184836745987825
aF0.8889503781590112
aF0.9786017339974175
aF1.0
aF1.0
aF1.0
aF0.9974174506548608
aF0.965504519461354
aF0.8607268031728463
aF0.6587345508208817
aF0.46873270614277807
aF0.39125622578859987
aF0.39180962921970114
aF0.4371887105700055
aF0.5379081350304372
aF0.6758900571850213
aF0.882309536985796
aF0.9983397897066962
aF1.0
aF1.0
aF0.9952038369304557
aF0.9306401033019738
aF0.7375023058476295
aF0.47887843571296806
aF0.4012174875484228
aF0.4805386460062719
aF0.5522966242390703
aF0.6150156797638812
aF0.6790260099612617
aF0.752444198487364
aF0.8907950562626822
aF0.9983397897066962
aF1.0
aF1.0
aF0.9891163991883416
aF0.8948533480907581
aF0.6098505810736027
aF0.33314886552296624
aF0.41984873639549897
aF0.6408411732152739
aF0.7755026747832503
aF0.872348275225973
aF0.9262128758531636
aF0.9496402877697842
aF0.9760191846522782
aF0.9998155321896329
aF1.0
aF0.9996310643792659
aF0.9852425751706327
aF0.8655229662423907
aF0.5034126544917912
aF0.20900202914591404
aF0.32650802434975096
aF0.509131156613171
aF0.645083932853717
aF0.8046485888212507
aF0.9455819959417082
aF0.991698948533481
aF0.9992621287585316
aF1.0
aF1.0
aF1.0
aF0.9905921416712784
aF0.9070282235749861
aF0.6474820143884892
aF0.4438295517432208
aF0.4541597491237779
aF0.4882862940416897
aF0.5237041136321712
aF0.6342003320420586
aF0.8491053311197196
aF0.9693783434790629
aF0.9964951116030253
aF1.0
aF1.0
aF0.9996310643792659
aF0.9798930086699871
aF0.9144069359896698
aF0.8775133739162516
aF0.8354547131525549
aF0.7961630695443646
aF0.6825308983582364
aF0.5475004611695259
aF0.5694521306032098
aF0.7819590481460985
aF0.93912562257886
aF0.9952038369304557
aF1.0
aF1.0
aF0.9992621287585316
aF0.9383877513373916
aF0.7635122671093895
aF0.8016971038553773
aF0.8649695628112894
aF0.8245711123408965
aF0.6683268769599705
aF0.5089466888028039
aF0.561888950378159
aF0.7788230953698579
aF0.9348828629404169
aF0.9940970300682531
aF1.0
aF1.0
aF0.9994465965688988
aF0.9481645452868475
aF0.6646375207526287
aF0.5015679763881202
aF0.5045194613539937
aF0.5222283711492345
aF0.44548976203652463
aF0.43054786939679024
aF0.6201807784541598
aF0.8446781036709095
aF0.9632909057369489
aF0.9990776609481645
aF1.0
aF1.0
aF1.0
aF0.985795978601734
aF0.8479985242575171
aF0.5705589374654123
aF0.3663530713890426
aF0.31636229477956096
aF0.3927319682715366
aF0.58402508762221
aF0.8208817561335547
aF0.9490868843386829
aF0.991698948533481
aF0.9996310643792659
aF1.0
aF1.0
aF0.9998155321896329
aF0.9994465965688988
aF0.9872717210846708
aF0.9267662792842649
aF0.8468917173953145
aF0.8136875115292381
aF0.8747463567607453
aF0.9466888028039108
aF0.9821066223943922
aF0.9970485150341265
aF0.9987087253274304
aF0.9996310643792659
aF1.0
aF1.0
aF1.0
aF1.0
aF1.0
aF0.9998155321896329
aF0.9994465965688988
aF0.9987087253274304
aF0.9994465965688988
aF0.9994465965688988
aF0.9996310643792659
aF0.9996310643792659
aF1.0
aF1.0
aF1.0
aaa.