(lp0
(lp1
I3
aI4
aa(lp2
F0.5120688215150756
aF0.4879311784849244
aa(lp3
(lp4
F1.0
aF1.0
aF1.0
aF1.0
aF1.0
aF1.0
aF1.0
aF1.0
aF1.0
aF1.0
aF1.0
aF1.0
aF1.0
aF1.0
aF1.0
aF1.0
aF1.0
aF0.9996737889414451
aF0.9983689447072256
aF0.9947806230631219
aF0.9877670853041918
aF0.9866253465992497
aF0.9898874571847985
aF0.9954330451802316
aF0.9993475778828902
aF1.0
aF1.0
aF1.0
aF1.0
aF1.0
aF0.9913554069482955
aF0.9450334366335019
aF0.8316750937856794
aF0.6519328005219377
aF0.4973087587669222
aF0.4723536127874735
aF0.6145816343174033
aF0.8090034252161148
aF0.9478062306312184
aF0.9957592562387865
aF1.0
aF1.0
aF1.0
aF0.9975534170608383
aF0.9456858587506116
aF0.7884521285271571
aF0.5499918447235361
aF0.35067688794650137
aF0.2604795302560757
aF0.19931495677703473
aF0.23780786168651116
aF0.49274180394715383
aF0.7902462893492089
aF0.9753710650791062
aF0.9998368944707225
aF1.0
aF1.0
aF0.9964116783558963
aF0.9451965421627793
aF0.8494535964769205
aF0.7638231936062633
aF0.7347904093948785
aF0.7215788615234057
aF0.5605937041265698
aF0.34904583265372696
aF0.4646876529114337
aF0.7791551133583429
aF0.9701516881422281
aF1.0
aF1.0
aF1.0
aF0.9977165225901158
aF0.9823846028380362
aF0.9611808840319687
aF0.9349208938183005
aF0.8489642798890883
aF0.6321970314793671
aF0.3441526667754037
aF0.27988908824009134
aF0.5866905888109607
aF0.8900668732670037
aF0.9915185124775729
aF1.0
aF1.0
aF1.0
aF0.9996737889414451
aF0.995596150709509
aF0.9791224922524874
aF0.8541836568259664
aF0.5139455227532214
aF0.20714402218235198
aF0.12151361931169467
aF0.25803294731691406
aF0.6351329310063611
aF0.9246452454738215
aF0.9952699396509541
aF1.0
aF1.0
aF1.0
aF0.9995106834121676
aF0.9933126732996248
aF0.9729244821399445
aF0.8290654053172403
aF0.5609199151851247
aF0.42603164247267983
aF0.39732506931984996
aF0.33860707877997065
aF0.43598107975860384
aF0.7935083999347577
aF0.9727613766106671
aF0.9996737889414451
aF1.0
aF1.0
aF0.9947806230631219
aF0.971619637905725
aF0.9577556679171424
aF0.9308432555863644
aF0.8975697276137661
aF0.8758766922198663
aF0.8073723699233404
aF0.5400424074376121
aF0.36193116946664494
aF0.6747675746207796
aF0.9300277279399771
aF0.9990213668243354
aF1.0
aF1.0
aF0.9807535475452618
aF0.8974066220844886
aF0.8479856467134236
aF0.8708204208122655
aF0.9112705920730713
aF0.9200782906540532
aF0.7977491436959713
aF0.47838851737073884
aF0.37155439569401405
aF0.6754199967378894
aF0.9298646224106997
aF0.9990213668243354
aF1.0
aF1.0
aF0.974229326374164
aF0.8349372043712282
aF0.6540531724025445
aF0.5570053824824661
aF0.5837546892839667
aF0.5614092317729571
aF0.3983037024955146
aF0.27189691730549664
aF0.4811613113684554
aF0.8034578372206818
aF0.9750448540205513
aF0.9996737889414451
aF1.0
aF1.0
aF0.990050562714076
aF0.9070298483118577
aF0.693361604958408
aF0.41803947153808513
aF0.22997879628119394
aF0.18169955961507095
aF0.2640678519001794
aF0.5173707388680476
aF0.8047626814549014
aF0.9582449845049748
aF0.9972272060022834
aF1.0
aF1.0
aF1.0
aF0.9996737889414451
aF0.9907029848311858
aF0.954656662860871
aF0.8830533355080737
aF0.8070461588647855
aF0.7954656662860871
aF0.8717990539879302
aF0.944707225574947
aF0.9879301908334692
aF0.9980427336486707
aF0.9998368944707225
aF1.0
aF1.0
aF1.0
aF1.0
aF1.0
aF1.0
aF0.9998368944707225
aF1.0
aF0.9996737889414451
aF0.9995106834121676
aF0.9995106834121676
aF0.9995106834121676
aF0.9998368944707225
aF1.0
aF1.0
aF1.0
aa(lp5
F1.0
aF1.0
aF1.0
aF1.0
aF1.0
aF1.0
aF1.0
aF1.0
aF1.0
aF1.0
aF1.0
aF1.0
aF1.0
aF1.0
aF1.0
aF1.0
aF1.0
aF1.0
aF1.0
aF0.999486477233824
aF0.999657651489216
aF0.999486477233824
aF0.99914412872304
aF0.999486477233824
aF0.998630605956864
aF0.9993153029784321
aF1.0
aF1.0
aF1.0
aF1.0
aF0.998630605956864
aF0.9934953782951044
aF0.9801437863745293
aF0.969188634029442
aF0.9623416638137624
aF0.9669633687093461
aF0.9433413214652516
aF0.9162957891133173
aF0.9142416980486134
aF0.9512153372132831
aF0.9940089010612804
aF1.0
aF1.0
aF0.999828825744608
aF0.9873331051009928
aF0.9503594659363231
aF0.8524477918521054
aF0.7603560424512154
aF0.7831222184183498
aF0.8632317699418007
aF0.7627524820267032
aF0.6326600479287915
aF0.7071208490243067
aF0.8503937007874016
aF0.9782608695652174
aF1.0
aF1.0
aF0.99914412872304
aF0.9774049982882574
aF0.8966107497432386
aF0.6858952413557001
aF0.5484423142759329
aF0.6641561109209175
aF0.84251968503937
aF0.6489216021910305
aF0.452755905511811
aF0.656453269428278
aF0.8871961656966793
aF0.9912701129750086
aF0.999828825744608
aF1.0
aF0.9982882574460801
aF0.968503937007874
aF0.8200958575830195
aF0.49811708319068815
aF0.4188634029441972
aF0.734337555631633
aF0.8885655597398151
aF0.4934953782951044
aF0.35107839780896954
aF0.7372475179732968
aF0.9585758301951387
aF0.9977747346799042
aF1.0
aF1.0
aF0.9979459089352961
aF0.9515576857240671
aF0.6898322492297159
aF0.28551865799383774
aF0.4171516603902773
aF0.7915097569325573
aF0.7384457377610407
aF0.2437521396781924
aF0.3548442314275933
aF0.7983567271482369
aF0.9662786716877781
aF0.9960629921259843
aF1.0
aF1.0
aF0.9981170831906881
aF0.9245121533721329
aF0.5547757617254365
aF0.1970215679561794
aF0.24803149606299213
aF0.3625470729202328
aF0.2483738445737761
aF0.07959602875727491
aF0.3408079424854502
aF0.7480314960629921
aF0.9212598425196851
aF0.9905854159534406
aF1.0
aF1.0
aF0.99914412872304
aF0.936836699760356
aF0.6850393700787402
aF0.46473810338925026
aF0.3933584388907908
aF0.35227661759671347
aF0.19582334816843547
aF0.17168777815816502
aF0.5294419719274222
aF0.8348168435467306
aF0.9563505648750428
aF0.9958918178705922
aF0.999828825744608
aF1.0
aF0.999828825744608
aF0.9828825744608011
aF0.9308456008216365
aF0.8950701814447107
aF0.8546730571722013
aF0.6821294077370763
aF0.4274221157137966
aF0.4609722697706265
aF0.7591578226634714
aF0.9354673057172201
aF0.9887024991441288
aF0.999657651489216
aF1.0
aF1.0
aF0.999828825744608
aF0.9981170831906881
aF0.9933242040397124
aF0.9744950359465936
aF0.8829168093118795
aF0.6811023622047244
aF0.5547757617254365
aF0.5997945908935296
aF0.8036631290653886
aF0.9418007531667237
aF0.9885313248887367
aF0.9989729544676481
aF1.0
aF1.0
aF1.0
aF1.0
aF0.9933242040397124
aF0.953440602533379
aF0.8396097226977063
aF0.7083190688120506
aF0.6545703526189661
aF0.6905169462512838
aF0.8243752139678192
aF0.937007874015748
aF0.9871619308456008
aF0.9993153029784321
aF1.0
aF1.0
aF1.0
aF1.0
aF0.9965765148921603
aF0.9784320438206093
aF0.9418007531667237
aF0.9104758644299897
aF0.8885655597398151
aF0.9164669633687094
aF0.9515576857240671
aF0.9871619308456008
aF0.9972612119137282
aF1.0
aF1.0
aF1.0
aF1.0
aF1.0
aF1.0
aF0.999828825744608
aF0.999828825744608
aF1.0
aF0.999828825744608
aF1.0
aF1.0
aF1.0
aF1.0
aF1.0
aF1.0
aaa.