(lp0
(lp1
I6
aI9
aa(lp2
F0.49869385691413165
aF0.5013061430858684
aa(lp3
(lp4
F1.0
aF1.0
aF1.0
aF1.0
aF0.9996620479891856
aF0.9986481919567421
aF0.9986481919567421
aF0.9986481919567421
aF0.9991551199729638
aF0.9996620479891856
aF1.0
aF1.0
aF1.0
aF1.0
aF1.0
aF1.0
aF1.0
aF0.9957755998648192
aF0.9819195674214262
aF0.9406894221020615
aF0.8761405880364989
aF0.7781345049003041
aF0.7566745522135857
aF0.820209530246705
aF0.9346062859074011
aF0.9880027036160866
aF0.999324095978371
aF1.0
aF1.0
aF1.0
aF0.9989861439675566
aF0.9891855356539372
aF0.9442379182156134
aF0.8546806353497803
aF0.6819871578235891
aF0.5153768164920581
aF0.5245015207840487
aF0.7130787428185198
aF0.9016559648529908
aF0.9787090233186887
aF0.9972963839134843
aF0.9998310239945928
aF1.0
aF1.0
aF0.9979722879351132
aF0.9780331192970598
aF0.895910780669145
aF0.7347076715106455
aF0.5162216965190943
aF0.46350118283203784
aF0.6838458938830686
aF0.8948969246367016
aF0.9685704629942549
aF0.9917201757350457
aF0.9984792159513349
aF0.9998310239945928
aF1.0
aF1.0
aF0.9971274079080771
aF0.9574180466373775
aF0.82173031429537
aF0.5721527543088881
aF0.40892193308550184
aF0.6100033795201082
aF0.8884758364312267
aF0.965866846907739
aF0.9763433592429875
aF0.9913822237242311
aF0.9994930719837783
aF0.9996620479891856
aF1.0
aF1.0
aF0.9952686718485975
aF0.9239607975667455
aF0.7085163906725245
aF0.40081108482595473
aF0.44609665427509293
aF0.8009462656302805
aF0.8771544440689422
aF0.8445420750253464
aF0.8785062521122
aF0.9493071983778304
aF0.9952686718485975
aF0.9998310239945928
aF1.0
aF1.0
aF0.9903683676917878
aF0.8793511321392362
aF0.5469753295032106
aF0.3077053058465698
aF0.5664075701250423
aF0.6591753970936127
aF0.5001689760054072
aF0.4998310239945928
aF0.6508955728286583
aF0.8545116593443731
aF0.9785400473132815
aF0.9998310239945928
aF1.0
aF1.0
aF0.9868198715782359
aF0.8205474822575194
aF0.4028387968908415
aF0.30027036160865156
aF0.49509969584319025
aF0.3136194660358229
aF0.30956404190604936
aF0.3822237242311592
aF0.4880027036160865
aF0.775092936802974
aF0.9584319026698209
aF1.0
aF1.0
aF1.0
aF0.9866508955728287
aF0.7911456573166611
aF0.33727610679283543
aF0.26326461642446775
aF0.38881378844204123
aF0.42987495775599865
aF0.5441027374112876
aF0.37157823589050354
aF0.4660358229131463
aF0.8038188577222034
aF0.9700912470429199
aF1.0
aF1.0
aF1.0
aF0.9907063197026023
aF0.8460628590740115
aF0.41568097330179116
aF0.13197026022304834
aF0.27171341669482935
aF0.3629604596147347
aF0.2617438323758026
aF0.27813450490030417
aF0.6387293004393376
aF0.9114565731666103
aF0.9929030077728962
aF1.0
aF1.0
aF1.0
aF0.9983102399459277
aF0.9547144305508618
aF0.70817843866171
aF0.28033119297059816
aF0.092429874957756
aF0.11676241973639744
aF0.2985806015545793
aF0.656471781007097
aF0.9158499493071984
aF0.9895234876647516
aF0.9991551199729638
aF0.9998310239945928
aF1.0
aF1.0
aF1.0
aF0.9994930719837783
aF0.9822575194322406
aF0.9119635011828321
aF0.8186887461980399
aF0.8296721865495099
aF0.9229469415343021
aF0.981750591416019
aF0.9966204798918553
aF0.9998310239945928
aF1.0
aF1.0
aF1.0
aF1.0
aF1.0
aF1.0
aF1.0
aF1.0
aF0.9998310239945928
aF0.9996620479891856
aF0.9994930719837783
aF0.9998310239945928
aF1.0
aF1.0
aF1.0
aF1.0
aF1.0
aF1.0
aF1.0
aF1.0
aF1.0
aF1.0
aF1.0
aF1.0
aF1.0
aF1.0
aF1.0
aF1.0
aF1.0
aF1.0
aa(lp5
F1.0
aF1.0
aF1.0
aF1.0
aF1.0
aF1.0
aF1.0
aF1.0
aF1.0
aF1.0
aF1.0
aF1.0
aF1.0
aF1.0
aF1.0
aF1.0
aF1.0
aF1.0
aF1.0
aF1.0
aF1.0
aF1.0
aF1.0
aF1.0
aF1.0
aF1.0
aF1.0
aF1.0
aF1.0
aF1.0
aF1.0
aF1.0
aF0.9996638090435367
aF0.9956295175659775
aF0.9840309295679946
aF0.9732728189611699
aF0.9806690200033619
aF0.9914271306101866
aF0.9976466633047572
aF1.0
aF1.0
aF1.0
aF1.0
aF1.0
aF1.0
aF0.9947890401748193
aF0.9502437384434359
aF0.7961001849050261
aF0.48882165069759625
aF0.26105227769373
aF0.34896621280887546
aF0.6681795259707514
aF0.9088922507984535
aF0.9902504622625652
aF0.9994957135653051
aF1.0
aF1.0
aF1.0
aF0.9954614220877458
aF0.9384770549672213
aF0.7137334005715247
aF0.30912758446797783
aF0.22138174483106404
aF0.3541771726340561
aF0.311817112119684
aF0.42259203227433184
aF0.7784501596907043
aF0.9675575727012944
aF0.9983190452176837
aF1.0
aF1.0
aF0.9994957135653051
aF0.9729366280047067
aF0.8191292654227601
aF0.4224239367961002
aF0.33669524289796604
aF0.7478567826525466
aF0.8198016473356867
aF0.44057824844511684
aF0.33417381072449154
aF0.744494873087914
aF0.9678937636577576
aF0.9986552361741469
aF1.0
aF1.0
aF0.9979828542612204
aF0.9502437384434359
aF0.7219700790048748
aF0.3365271474197344
aF0.5222726508656917
aF0.7562615565641284
aF0.5453017313834257
aF0.16859976466633048
aF0.3190452176836443
aF0.8245083207261724
aF0.9828542612203732
aF0.9998319045217684
aF1.0
aF1.0
aF0.9978147587829888
aF0.9567994620944696
aF0.7557572701294335
aF0.4084720121028744
aF0.3709867204572197
aF0.3698100521095983
aF0.24390653891410322
aF0.08287107076819633
aF0.5093292990418558
aF0.9181375021011935
aF0.9900823667843335
aF0.9998319045217684
aF1.0
aF1.0
aF0.9996638090435367
aF0.9815094973945201
aF0.8922507984535216
aF0.6896957471844007
aF0.5521936459909228
aF0.5545469826861658
aF0.3388804841149773
aF0.20709362918137503
aF0.7071776769204908
aF0.9492351655740461
aF0.9924357034795764
aF0.9998319045217684
aF1.0
aF1.0
aF0.9994957135653051
aF0.996301899478904
aF0.9776433013951925
aF0.9409984871406959
aF0.8925869894099848
aF0.7565977475205917
aF0.4056143889729366
aF0.43637586148932594
aF0.7930744662968566
aF0.9561270801815431
aF0.9924357034795764
aF0.9993276180870735
aF1.0
aF1.0
aF1.0
aF0.998150949739452
aF0.9946209446965877
aF0.9803328290468987
aF0.9056984367120524
aF0.6658261892755085
aF0.4783997310472348
aF0.5967389477223063
aF0.8221549840309296
aF0.9527651706169104
aF0.9914271306101866
aF0.9986552361741469
aF1.0
aF1.0
aF1.0
aF0.9993276180870735
aF0.9912590351319549
aF0.9396537233148429
aF0.7898806522104556
aF0.5997646663304758
aF0.5866532190284082
aF0.673894772230627
aF0.8366111951588502
aF0.9468818288788031
aF0.9872247436543957
aF0.9988233316523786
aF1.0
aF1.0
aF1.0
aF0.998150949739452
aF0.979660447133972
aF0.911917969406623
aF0.7740796772566818
aF0.6841485964027567
aF0.7255000840477391
aF0.7613044209110775
aF0.8653555219364599
aF0.9532694570516053
aF0.9910909396537233
aF0.9998319045217684
aF1.0
aF1.0
aF1.0
aF0.9998319045217684
aF0.9984871406959153
aF0.9951252311312826
aF0.9852075979156161
aF0.978315683308119
aF0.9852075979156161
aF0.9872247436543957
aF0.9909228441754917
aF0.9966380904353673
aF1.0
aF1.0
aF1.0
aaa.