(lp0
(lp1
I3
aI4
aa(lp2
F0.5120688215150756
aF0.4879311784849244
aa(lp3
(lp4
F1.0
aF1.0
aF1.0
aF1.0
aF1.0
aF1.0
aF1.0
aF1.0
aF1.0
aF1.0
aF1.0
aF1.0
aF1.0
aF1.0
aF1.0
aF1.0
aF1.0
aF1.0
aF1.0
aF1.0
aF1.0
aF1.0
aF1.0
aF1.0
aF1.0
aF1.0
aF1.0
aF1.0
aF1.0
aF1.0
aF1.0
aF1.0
aF1.0
aF1.0
aF1.0
aF1.0
aF1.0
aF1.0
aF1.0
aF1.0
aF1.0
aF1.0
aF1.0
aF1.0
aF1.0
aF1.0
aF1.0
aF1.0
aF1.0
aF1.0
aF1.0
aF1.0
aF1.0
aF1.0
aF1.0
aF1.0
aF1.0
aF1.0
aF1.0
aF1.0
aF1.0
aF1.0
aF1.0
aF1.0
aF1.0
aF1.0
aF0.9998368944707225
aF0.9998368944707225
aF0.9996737889414451
aF0.9996737889414451
aF0.9996737889414451
aF0.9996737889414451
aF0.9996737889414451
aF0.9996737889414451
aF0.9998368944707225
aF1.0
aF1.0
aF1.0
aF1.0
aF1.0
aF1.0
aF1.0
aF1.0
aF1.0
aF1.0
aF1.0
aF1.0
aF1.0
aF1.0
aF0.9995106834121676
aF0.9991844723536127
aF0.9982058391779481
aF0.9969009949437286
aF0.9936388843581797
aF0.9887457184798565
aF0.9810797586038167
aF0.9747186429619964
aF0.9712934268471701
aF0.9693361604958408
aF0.9725982710813896
aF0.9768390148426032
aF0.9799380198988745
aF0.9869515576578046
aF0.9916816180068504
aF0.9951068341216768
aF0.9982058391779481
aF0.9996737889414451
aF1.0
aF1.0
aF1.0
aF1.0
aF1.0
aF1.0
aF1.0
aF1.0
aF1.0
aF0.9990213668243354
aF0.9936388843581797
aF0.9853205023650302
aF0.9647692056760724
aF0.9355733159354103
aF0.8956124612624368
aF0.8393410536617192
aF0.7817648018267819
aF0.7391942586853695
aF0.7109770021203718
aF0.7098352634154298
aF0.7287555048116131
aF0.7698580981895287
aF0.8295547219050726
aF0.8799543304518023
aF0.9266025118251509
aF0.9642798890882401
aF0.9864622410699723
aF0.9952699396509541
aF0.9998368944707225
aF1.0
aF1.0
aF1.0
aF1.0
aF1.0
aF1.0
aF1.0
aF0.998858261295058
aF0.9902136682433534
aF0.9698254770836732
aF0.9311694666449193
aF0.8737563203392595
aF0.7904093948784864
aF0.6847170119067036
aF0.5664655031805578
aF0.4550644266840646
aF0.37285923992823355
aF0.31560919915185126
aF0.30484423421954004
aF0.33583428478225413
aF0.4129832001304844
aF0.5305822867395205
aF0.6617191322785843
aF0.774425053009297
aF0.8708204208122655
aF0.9420975371065079
aF0.9814059696623716
aF0.9962485728266188
aF0.9998368944707225
aF1.0
aF1.0
aF1.0
aF1.0
aF1.0
aF0.9998368944707225
aF0.9931495677703475
aF0.9721089544935574
aF0.9334529440548035
aF0.8678845212852716
aF0.7705105203066384
aF0.6501386396998858
aF0.5211221660414288
aF0.4059696623715544
aF0.3143043549176317
aF0.25656499755341705
aF0.2152992986462241
aF0.19409557984015657
aF0.19409557984015657
aF0.2368292285108465
aF0.34398956124612623
aF0.4793671505464035
aF0.6323601370086446
aF0.7654542488990377
aF0.882074702332409
aF0.9579187734464198
aF0.9908660903604632
aF0.9993475778828902
aF1.0
aF1.0
aF1.0
aF1.0
aF0.9995106834121676
aF0.9996737889414451
aF0.990050562714076
aF0.9577556679171424
aF0.9091502201924645
aF0.8293916163757952
aF0.7357690425705431
aF0.6364377752405806
aF0.5353123470885663
aF0.46256728103082695
aF0.42195400424074375
aF0.40776382319360627
aF0.38884358179742295
aF0.36323601370086445
aF0.31675093785679337
aF0.2947316914043386
aF0.32751590278910453
aF0.43190344152666776
aF0.5571684880117436
aF0.7060838362420486
aF0.8424400587179905
aF0.9404664818137335
aF0.9864622410699723
aF0.9986951557657805
aF1.0
aF1.0
aF1.0
aF1.0
aF0.9998368944707225
aF0.9993475778828902
aF0.9864622410699723
aF0.9551459794487033
aF0.9114336976023487
aF0.8530419181210243
aF0.7882890229978796
aF0.7259827108138965
aF0.6801500570869352
aF0.652748328168325
aF0.6506279562877182
aF0.6604142880443648
aF0.6485075844071114
aF0.597129342684717
aF0.5028543467623553
aF0.4141249388354265
aF0.38329799380198987
aF0.43043549176317075
aF0.5457511009623226
aF0.6979285597781765
aF0.8355896264883379
aF0.9355733159354103
aF0.9871146631870821
aF0.9993475778828902
aF1.0
aF1.0
aF1.0
aF1.0
aF0.9998368944707225
aF0.9990213668243354
aF0.9902136682433534
aF0.9680313162616213
aF0.9388354265209591
aF0.9009949437285923
aF0.866579677051052
aF0.8466808024792041
aF0.8287391942586854
aF0.8228673952046974
aF0.8233567117925298
aF0.8187897569727614
aF0.7781764801826782
aF0.6824335344968194
aF0.5460773120208775
aF0.42961996411678355
aF0.37090197357690424
aF0.4431577230468113
aF0.5809818952862502
aF0.7354428315119883
aF0.8691893655194911
aF0.9494372859239928
aF0.9902136682433534
aF1.0
aF1.0
aF1.0
aF1.0
aF1.0
aF0.9998368944707225
aF0.9995106834121676
aF0.9928233567117926
aF0.9820583917794813
aF0.9688468439080085
aF0.95025281357038
aF0.9370412656989072
aF0.9297015168814223
aF0.9164899690099494
aF0.8969173054966564
aF0.8659272549339423
aF0.8052519980427336
aF0.7005382482466156
aF0.5615723373022345
aF0.4185287881259175
aF0.33420322948947967
aF0.3521448377099984
aF0.48262926113195237
aF0.6545424889903768
aF0.8032947316914043
aF0.9158375468928397
aF0.9732506931984994
aF0.994454412004567
aF1.0
aF0.9998368944707225
aF1.0
aF1.0
aF1.0
aF1.0
aF0.9996737889414451
aF0.9957592562387865
aF0.9905398793019083
aF0.9840156581308106
aF0.9778176480182679
aF0.9703147936715054
aF0.9528625020388192
aF0.9176317077148916
aF0.8492904909476431
aF0.7452291632686348
aF0.611482629261132
aF0.46370901973576906
aF0.3452944054803458
aF0.26292611319523734
aF0.27075517860055454
aF0.3713912901647366
aF0.5539063774261948
aF0.7364214646876529
aF0.8724514761050399
aF0.9556352960365356
aF0.9884195074213016
aF0.9983689447072256
aF1.0
aF0.9998368944707225
aF1.0
aF1.0
aF1.0
aF1.0
aF1.0
aF0.9983689447072256
aF0.9954330451802316
aF0.9911923014190182
aF0.9851573968357528
aF0.9694992660251183
aF0.9285597781764802
aF0.8378731038982221
aF0.6945033436633502
aF0.5253629098026423
aF0.3702495514597945
aF0.24938835426520958
aF0.17778502691241233
aF0.17615397161963792
aF0.23960202250856305
aF0.3837873103898222
aF0.5915837546892839
aF0.7656173544283151
aF0.896427988908824
aF0.9680313162616213
aF0.9931495677703475
aF0.9991844723536127
aF0.9998368944707225
aF0.9998368944707225
aF1.0
aF1.0
aF1.0
aF1.0
aF1.0
aF0.9993475778828902
aF0.9969009949437286
aF0.9946175175338444
aF0.984178763660088
aF0.95726635132931
aF0.8863154460936226
aF0.7535475452617844
aF0.5695645082368292
aF0.38688631544609364
aF0.25411841461425544
aF0.18512477572989725
aF0.17207633338770184
aF0.19947806230631218
aF0.25689120861197196
aF0.37041265698907194
aF0.5263415429783069
aF0.7080411025933779
aF0.8628282498776708
aF0.9458489642798891
aF0.9864622410699723
aF0.9977165225901158
aF0.9996737889414451
aF0.9998368944707225
aF1.0
aF1.0
aF1.0
aF1.0
aF1.0
aF0.9990213668243354
aF0.9977165225901158
aF0.9928233567117926
aF0.9833632360137009
aF0.9500897080411026
aF0.8698417876366009
aF0.7377263089218724
aF0.5762518349372043
aF0.43647039634643614
aF0.3511662045343337
aF0.3253955309084978
aF0.327679008318382
aF0.3327352797259827
aF0.33501875713586693
aF0.3521448377099984
aF0.4336976023487196
aF0.5904420159843419
aF0.7696949926602512
aF0.8944707225574947
aF0.9665633664981242
aF0.9920078290654053
aF0.9993475778828902
aF1.0
aF1.0
aF1.0
aF1.0
aF0.9998368944707225
aF0.9993475778828902
aF0.9977165225901158
aF0.9933126732996248
aF0.9880932963627467
aF0.9797749143695972
aF0.9562877181536454
aF0.9005056271407601
aF0.8086772141575599
aF0.7028217256564998
aF0.6238786494862176
aF0.5879954330451802
aF0.5813081063448051
aF0.5769042570543141
aF0.550318055782091
aF0.47985646713423585
aF0.40335997390311534
aF0.392921220029359
aF0.4942097537106508
aF0.672320991681618
aF0.8390148426031643
aF0.9339422606426357
aF0.9833632360137009
aF0.9983689447072256
aF1.0
aF0.9998368944707225
aF1.0
aF1.0
aF0.9998368944707225
aF0.9970641004730061
aF0.9921709345946828
aF0.9832001304844235
aF0.9755341706083837
aF0.9694992660251183
aF0.9575925623878649
aF0.9316587832327516
aF0.8892513456206166
aF0.8523894960039146
aF0.8254770836731365
aF0.820094601206981
aF0.8114500081552765
aF0.7908987114663187
aF0.736095253629098
aF0.6266514434839341
aF0.46876529114336973
aF0.3878649486217583
aF0.446746044690915
aF0.6150709509052357
aF0.7856793345294405
aF0.9067036372533029
aF0.9685206328494536
aF0.9960854672973414
aF1.0
aF1.0
aF1.0
aF1.0
aF0.9998368944707225
aF0.9964116783558963
aF0.9822214973087587
aF0.9641167835589627
aF0.9522100799217094
aF0.947316914043386
aF0.9383461099331267
aF0.9358995269939651
aF0.9385092154624042
aF0.9329636274669711
aF0.9328005219376937
aF0.9285597781764802
aF0.9202413961833306
aF0.896427988908824
aF0.8192790735605937
aF0.6832490621432067
aF0.5080737236992334
aF0.4010764964932311
aF0.43614418528788124
aF0.5969662371554396
aF0.7615397161963791
aF0.8851737073886805
aF0.9606915674441363
aF0.9951068341216768
aF1.0
aF1.0
aF1.0
aF1.0
aF0.9998368944707225
aF0.9931495677703475
aF0.9680313162616213
aF0.9358995269939651
aF0.9107812754852389
aF0.8938183004403849
aF0.889414451149894
aF0.9000163105529277
aF0.9197520795954983
aF0.9326374164084162
aF0.9434023813407274
aF0.9456858587506116
aF0.9368781601696298
aF0.9018104713749796
aF0.8029685206328494
aF0.6455716848801174
aF0.4813244168977328
aF0.3925950089708041
aF0.4454412004566955
aF0.6021856140923177
aF0.761865927254934
aF0.8804436470396346
aF0.9623226227369108
aF0.9960854672973414
aF1.0
aF1.0
aF1.0
aF1.0
aF0.9998368944707225
aF0.9890719295384114
aF0.9540042407437612
aF0.9018104713749796
aF0.8492904909476431
aF0.8143859076822705
aF0.8016636763986299
aF0.8075354754526178
aF0.833795465666286
aF0.8680476268145491
aF0.892350350676888
aF0.8970804110259338
aF0.8766922198662535
aF0.8103082694503344
aF0.6918936551949111
aF0.5315609199151852
aF0.40352307943239274
aF0.38656010438753874
aF0.4692546077312021
aF0.6348067199478062
aF0.7840482792366661
aF0.8992007829065405
aF0.9745555374327189
aF0.9977165225901158
aF1.0
aF1.0
aF1.0
aF1.0
aF0.9993475778828902
aF0.987440874245637
aF0.9448703311042245
aF0.8802805415103572
aF0.8018267819279074
aF0.7343010928070461
aF0.6897732833143043
aF0.6626977654542489
aF0.6742782580329473
aF0.7163594845865274
aF0.7395204697439243
aF0.7411515250366988
aF0.7010275648344478
aF0.608546729734138
aF0.4914369597129343
aF0.3790572500407764
aF0.3359973903115316
aF0.39096395367802966
aF0.5346599249714565
aF0.6931984994291307
aF0.8357527320176154
aF0.9341053661719132
aF0.9838525526015331
aF0.998858261295058
aF1.0
aF1.0
aF1.0
aF1.0
aF0.9995106834121676
aF0.9902136682433534
aF0.954656662860871
aF0.8874571847985647
aF0.7961180884031969
aF0.6870004893165879
aF0.5909313325721742
aF0.509052356874898
aF0.4819768390148426
aF0.4756157233730223
aF0.4832816832490621
aF0.46876529114336973
aF0.4229326374164084
aF0.3581797422932637
aF0.2986462241069972
aF0.280867721415756
aF0.34855651606589466
aF0.4854020551296689
aF0.6489969009949438
aF0.7969336160495841
aF0.903441526667754
aF0.9698254770836732
aF0.9941282009460121
aF0.9996737889414451
aF1.0
aF1.0
aF1.0
aF1.0
aF1.0
aF0.9928233567117926
aF0.9704778992007829
aF0.919262763007666
aF0.8432555863643778
aF0.7227206002283477
aF0.5884847496330126
aF0.46109933126732994
aF0.3503506768879465
aF0.28837057576251834
aF0.24759419344315772
aF0.2306312183983037
aF0.21823519817321807
aF0.22166041428804437
aF0.259500897080411
aF0.3580166367639863
aF0.49763496982547706
aF0.6579677051052031
aF0.7938346109933127
aF0.8956124612624368
aF0.9597129342684717
aF0.9889088240091339
aF0.9983689447072256
aF1.0
aF1.0
aF1.0
aF1.0
aF1.0
aF1.0
aF0.9975534170608383
aF0.9862991355406948
aF0.9564508236829229
aF0.9080084814875224
aF0.827108138965911
aF0.7099983689447072
aF0.5822867395204697
aF0.45685858750611646
aF0.35426520959060515
aF0.2890229978796281
aF0.2674930680150057
aF0.2873919425868537
aF0.3650301745229163
aF0.4774098841950742
aF0.6074049910291959
aF0.7351166204534334
aF0.8412983200130485
aF0.9171423911270592
aF0.9667264720274017
aF0.9893981405969663
aF0.9970641004730061
aF0.9996737889414451
aF0.9998368944707225
aF1.0
aF1.0
aF1.0
aF1.0
aF1.0
aF0.9996737889414451
aF0.9954330451802316
aF0.9840156581308106
aF0.9665633664981242
aF0.9352471048768554
aF0.8892513456206166
aF0.8287391942586854
aF0.7675746207796444
aF0.7070624694177132
aF0.6667754036861849
aF0.6592725493394226
aF0.6799869515576578
aF0.7263089218724514
aF0.8003588321644104
aF0.8662534659924972
aF0.9202413961833306
aF0.9597129342684717
aF0.9823846028380362
aF0.9942913064752895
aF0.9978796281193932
aF0.9993475778828902
aF0.9998368944707225
aF1.0
aF1.0
aF1.0
aF1.0
aF1.0
aF1.0
aF1.0
aF0.9998368944707225
aF0.9986951557657805
aF0.9964116783558963
aF0.9920078290654053
aF0.9869515576578046
aF0.9792855977817648
aF0.9722720600228347
aF0.961670200619801
aF0.9580818789756973
aF0.9571032458000326
aF0.9608546729734138
aF0.9667264720274017
aF0.9747186429619964
aF0.9827108138965911
aF0.9902136682433534
aF0.9946175175338444
aF0.9972272060022834
aF0.998858261295058
aF0.9995106834121676
aF0.9996737889414451
aF1.0
aF1.0
aF1.0
aF1.0
aF1.0
aF1.0
aF1.0
aF1.0
aF1.0
aF1.0
aF1.0
aF0.9996737889414451
aF0.9995106834121676
aF0.9995106834121676
aF0.9993475778828902
aF0.998858261295058
aF0.9986951557657805
aF0.998532050236503
aF0.9983689447072256
aF0.998858261295058
aF0.9990213668243354
aF0.9986951557657805
aF0.9990213668243354
aF0.9991844723536127
aF0.9993475778828902
aF0.9996737889414451
aF0.9998368944707225
aF1.0
aF1.0
aF1.0
aF1.0
aF1.0
aF1.0
aF1.0
aF1.0
aF1.0
aF1.0
aF1.0
aF1.0
aF1.0
aF1.0
aF1.0
aF1.0
aF1.0
aF1.0
aF1.0
aF1.0
aF1.0
aF1.0
aF1.0
aF1.0
aF1.0
aF1.0
aF1.0
aF1.0
aF1.0
aF1.0
aF1.0
aF1.0
aF1.0
aF1.0
aa(lp5
F1.0
aF1.0
aF1.0
aF1.0
aF1.0
aF1.0
aF1.0
aF1.0
aF1.0
aF1.0
aF1.0
aF1.0
aF1.0
aF1.0
aF1.0
aF1.0
aF1.0
aF1.0
aF1.0
aF1.0
aF1.0
aF1.0
aF1.0
aF1.0
aF1.0
aF1.0
aF1.0
aF1.0
aF1.0
aF1.0
aF1.0
aF1.0
aF1.0
aF1.0
aF1.0
aF1.0
aF1.0
aF1.0
aF1.0
aF1.0
aF1.0
aF1.0
aF0.999828825744608
aF1.0
aF1.0
aF1.0
aF1.0
aF1.0
aF1.0
aF1.0
aF1.0
aF1.0
aF1.0
aF1.0
aF1.0
aF1.0
aF1.0
aF1.0
aF1.0
aF1.0
aF1.0
aF1.0
aF1.0
aF1.0
aF1.0
aF1.0
aF1.0
aF1.0
aF0.999828825744608
aF0.999657651489216
aF0.999486477233824
aF0.999486477233824
aF0.999657651489216
aF0.999828825744608
aF1.0
aF0.999657651489216
aF0.999657651489216
aF0.999828825744608
aF0.999828825744608
aF1.0
aF1.0
aF1.0
aF1.0
aF1.0
aF1.0
aF1.0
aF1.0
aF1.0
aF1.0
aF1.0
aF1.0
aF0.999828825744608
aF0.999828825744608
aF0.999657651489216
aF0.9989729544676481
aF0.9982882574460801
aF0.9982882574460801
aF0.9981170831906881
aF0.9969188634029442
aF0.9960629921259843
aF0.9958918178705922
aF0.9965765148921603
aF0.9960629921259843
aF0.9945224238274564
aF0.9929818555289285
aF0.9936665525504964
aF0.9967476891475522
aF0.9979459089352961
aF0.99914412872304
aF0.999828825744608
aF1.0
aF1.0
aF1.0
aF1.0
aF1.0
aF1.0
aF0.999657651489216
aF0.998630605956864
aF0.9979459089352961
aF0.9958918178705922
aF0.9931530297843204
aF0.9912701129750086
aF0.9876754536117768
aF0.9839096199931531
aF0.9809996576514892
aF0.9827114002054091
aF0.984594317014721
aF0.9809996576514892
aF0.9724409448818898
aF0.9654228004108182
aF0.9570352618966107
aF0.9479630263608353
aF0.9440260184868196
aF0.953269428277987
aF0.9626840123245464
aF0.9775761725436495
aF0.9919548099965765
aF0.9988017802122561
aF0.999828825744608
aF1.0
aF1.0
aF1.0
aF1.0
aF1.0
aF0.9979459089352961
aF0.9933242040397124
aF0.9857925368024649
aF0.9763779527559056
aF0.9649092776446423
aF0.9419719274221157
aF0.9293050325231085
aF0.9174940089010613
aF0.9115029099623416
aF0.9236562820951729
aF0.9287915097569326
aF0.9286203355015406
aF0.9010612803834304
aF0.8644299897295447
aF0.8361862375898664
aF0.8255734337555631
aF0.8308798356727148
aF0.8541595344060253
aF0.8885655597398151
aF0.9263950701814447
aF0.9697021567956179
aF0.9934953782951044
aF0.999657651489216
aF1.0
aF1.0
aF1.0
aF1.0
aF0.9993153029784321
aF0.9950359465936324
aF0.984594317014721
aF0.9707292023279699
aF0.9477918521054434
aF0.9150975693255734
aF0.8685381718589524
aF0.8298527901403628
aF0.8173570694967477
aF0.8163300239643958
aF0.844060253337898
aF0.8803491954809997
aF0.8829168093118795
aF0.8408079424854502
aF0.7695994522423828
aF0.7125984251968503
aF0.6985621362547073
aF0.7319411160561452
aF0.7761040739472783
aF0.8332762752482027
aF0.8899349537829511
aF0.952927079767203
aF0.9899007189318726
aF0.9984594317014721
aF1.0
aF1.0
aF1.0
aF1.0
aF0.9984594317014721
aF0.9917836357411846
aF0.9755220814789456
aF0.9553235193426909
aF0.9118452584731257
aF0.8555289284491613
aF0.78226634714139
aF0.7264635398836015
aF0.7096884628551866
aF0.7268058883943855
aF0.7790140362889422
aF0.8361862375898664
aF0.8510783978089695
aF0.7949332420403972
aF0.6925710373159877
aF0.6116056145155768
aF0.6027045532351935
aF0.6595344060253338
aF0.734337555631633
aF0.8151318041766519
aF0.8894214310167751
aF0.9556658678534748
aF0.9888736733995207
aF0.9984594317014721
aF1.0
aF1.0
aF1.0
aF0.999828825744608
aF0.9976035604245121
aF0.9878466278671688
aF0.9693598082848339
aF0.9402601848681958
aF0.8782951044162958
aF0.7983567271482369
aF0.6958233481684355
aF0.6302636083533036
aF0.6126326600479288
aF0.6526874358096543
aF0.734679904142417
aF0.8214652516261555
aF0.844402601848682
aF0.766347141389935
aF0.6304347826086957
aF0.5231085244779186
aF0.5279014036288943
aF0.6148579253680246
aF0.7314275932899692
aF0.8305374871619309
aF0.9168093118794933
aF0.9698733310510099
aF0.9936665525504964
aF0.99914412872304
aF1.0
aF1.0
aF1.0
aF0.999828825744608
aF0.9981170831906881
aF0.9869907565902089
aF0.9631975350907224
aF0.9238274563505648
aF0.84251968503937
aF0.734166381376241
aF0.6044162957891133
aF0.5368024649092776
aF0.5426223895926052
aF0.6121191372817528
aF0.7353646011639849
aF0.84337555631633
aF0.8539883601506334
aF0.7384457377610407
aF0.5561451557685724
aF0.4498459431701472
aF0.47740499828825744
aF0.609722697706265
aF0.7547072920232797
aF0.8685381718589524
aF0.9489900718931873
aF0.984936665525505
aF0.9967476891475522
aF0.999486477233824
aF1.0
aF1.0
aF1.0
aF0.999657651489216
aF0.9969188634029442
aF0.984423142759329
aF0.9566929133858267
aF0.9003765833618623
aF0.796987333105101
aF0.6549127011297501
aF0.516432728517631
aF0.4560082163642588
aF0.5065046217048956
aF0.6338582677165354
aF0.7928791509756933
aF0.8937007874015748
aF0.8618623758986649
aF0.6947963026360835
aF0.4722697706264978
aF0.3784662786716878
aF0.453440602533379
aF0.6355700102704553
aF0.8022937350222527
aF0.9144128723040055
aF0.9744950359465936
aF0.9936665525504964
aF0.9979459089352961
aF1.0
aF1.0
aF1.0
aF1.0
aF0.999486477233824
aF0.9957206436152003
aF0.9828825744608011
aF0.9462512838069155
aF0.8700787401574803
aF0.733652858610065
aF0.5619650804519001
aF0.4188634029441972
aF0.3969530982540226
aF0.515576857240671
aF0.701985621362547
aF0.8733310510099281
aF0.9269085929476206
aF0.84423142759329
aF0.6052721670660732
aF0.37127695994522425
aF0.3206093803491955
aF0.4666210201985621
aF0.6841834988017802
aF0.8519342690859295
aF0.9435124957206437
aF0.9859637110578569
aF0.9969188634029442
aF0.999486477233824
aF0.999828825744608
aF1.0
aF1.0
aF0.999828825744608
aF0.999486477233824
aF0.9953782951044163
aF0.9809996576514892
aF0.9323861691201644
aF0.8255734337555631
aF0.6492639507018144
aF0.4498459431701472
aF0.3242040397124272
aF0.37470044505306405
aF0.5641903457719959
aF0.7733652858610065
aF0.8926737418692229
aF0.8935296131461828
aF0.7579596028757275
aF0.47586442998972955
aF0.2726805888394386
aF0.30571722013009245
aF0.5039370078740157
aF0.7321122903115371
aF0.8786374529270797
aF0.9522423827456351
aF0.983567271482369
aF0.9928106812735364
aF0.9988017802122561
aF0.999828825744608
aF1.0
aF1.0
aF0.999828825744608
aF0.999828825744608
aF0.9960629921259843
aF0.9732968161588497
aF0.9089352961314618
aF0.7598425196850394
aF0.5489558370421088
aF0.34697021567956177
aF0.2591578226634714
aF0.3543307086614173
aF0.5593974666210202
aF0.7276617596713454
aF0.7860321807600137
aF0.7456350564875043
aF0.577884286203355
aF0.3230058199246833
aF0.19496747689147553
aF0.2983567271482369
aF0.5205409106470387
aF0.7304005477576172
aF0.8627182471756247
aF0.937863745292708
aF0.969188634029442
aF0.9864772338240329
aF0.9974323861691201
aF0.999486477233824
aF1.0
aF1.0
aF0.999828825744608
aF0.999828825744608
aF0.9943512495720643
aF0.9640534063676823
aF0.8777815816501198
aF0.6961656966792195
aF0.4719274221157138
aF0.27730229373502224
aF0.2141389934953783
aF0.29596028757274906
aF0.43187264635398837
aF0.5196850393700787
aF0.531153714481342
aF0.48510783978089694
aF0.3373844573776104
aF0.1799041424169805
aF0.1419034577199589
aF0.28021225607668604
aF0.49144128723040054
aF0.6894899007189319
aF0.8248887367339952
aF0.905169462512838
aF0.9477918521054434
aF0.9806573091407053
aF0.9962341663813763
aF0.999828825744608
aF1.0
aF1.0
aF1.0
aF0.999828825744608
aF0.9917836357411846
aF0.9594317014720986
aF0.8555289284491613
aF0.6682642930503252
aF0.468503937007874
aF0.2844916124614858
aF0.21978774392331393
aF0.23844573776104075
aF0.2846627867168778
aF0.3076001369394043
aF0.3034919548099966
aF0.2591578226634714
aF0.1785347483738446
aF0.11074974323861692
aF0.13334474495035947
aF0.28825744608010956
aF0.4957206436152003
aF0.6831564532694283
aF0.8165011982197877
aF0.8925025676138308
aF0.9435124957206437
aF0.9782608695652174
aF0.9952071208490243
aF0.999657651489216
aF1.0
aF1.0
aF1.0
aF1.0
aF0.9941800753166724
aF0.9673057172201301
aF0.8627182471756247
aF0.7098596371105785
aF0.5552892844916124
aF0.4171516603902773
aF0.34269085929476206
aF0.3166723724751797
aF0.32249229715850736
aF0.32403286545703525
aF0.3019513865114687
aF0.23998630605956864
aF0.1627867168777816
aF0.13009243409791169
aF0.20403971242725094
aF0.3767545361177679
aF0.5867853474837385
aF0.7482026703183842
aF0.8553577541937692
aF0.9176651831564533
aF0.9608010955152345
aF0.9828825744608011
aF0.9965765148921603
aF0.999486477233824
aF1.0
aF1.0
aF1.0
aF0.999657651489216
aF0.9965765148921603
aF0.9750085587127696
aF0.9097911674084218
aF0.8135912358781239
aF0.7199589181787059
aF0.6434440260184868
aF0.5977404998288257
aF0.5773707634371791
aF0.5633344744950359
aF0.5438206093803492
aF0.4768914755220815
aF0.36357411845258475
aF0.2610407394727833
aF0.24477918521054434
aF0.36015063334474495
aF0.5371448134200616
aF0.719103046901746
aF0.8387538514207463
aF0.9145840465593975
aF0.9570352618966107
aF0.9789455665867853
aF0.9929818555289285
aF0.9984594317014721
aF0.999828825744608
aF1.0
aF1.0
aF1.0
aF1.0
aF0.9979459089352961
aF0.9878466278671688
aF0.9548099965765149
aF0.9091064703868538
aF0.8675111263266004
aF0.8399520712084902
aF0.8296816158849709
aF0.8159876754536117
aF0.7877439233139336
aF0.7312564190345772
aF0.6152002738788086
aF0.4784320438206094
aF0.38805203697363916
aF0.3892502567613831
aF0.5071893187264636
aF0.671858952413557
aF0.812735364601164
aF0.9007189318726464
aF0.9515576857240671
aF0.9780896953098254
aF0.9902430674426567
aF0.9972612119137282
aF0.999657651489216
aF1.0
aF1.0
aF1.0
aF1.0
aF0.999828825744608
aF0.9984594317014721
aF0.9934953782951044
aF0.9818555289284492
aF0.9693598082848339
aF0.9575487846627867
aF0.9474495035946594
aF0.9395754878466279
aF0.922800410818213
aF0.8798356727148237
aF0.7903115371448134
aF0.6579938377268059
aF0.5364601163984937
aF0.47945908935296133
aF0.500171174255392
aF0.5977404998288257
aF0.733310510099281
aF0.8490243067442657
aF0.921088668264293
aF0.9630263608353303
aF0.985107839780897
aF0.9941800753166724
aF0.9988017802122561
aF0.999828825744608
aF1.0
aF1.0
aF1.0
aF1.0
aF0.999828825744608
aF0.9993153029784321
aF0.9981170831906881
aF0.9946935980828483
aF0.9899007189318726
aF0.9863060595686409
aF0.9820267031838411
aF0.9679904142416981
aF0.9339267374186923
aF0.8699075659020883
aF0.765833618623759
aF0.6578226634714139
aF0.5773707634371791
aF0.5443341321465252
aF0.5717220130092434
aF0.6473810338925026
aF0.7627524820267032
aF0.8575830195138651
aF0.9241698048613488
aF0.9649092776446423
aF0.983224922971585
aF0.9938377268058884
aF0.9982882574460801
aF0.999828825744608
aF1.0
aF1.0
aF1.0
aF1.0
aF1.0
aF1.0
aF0.999486477233824
aF0.9977747346799042
aF0.9972612119137282
aF0.9921259842519685
aF0.9825402259500171
aF0.9560082163642588
aF0.9104758644299897
aF0.8334474495035946
aF0.7398151318041767
aF0.6593632317699418
aF0.6198219787743924
aF0.5958575830195139
aF0.6225607668606642
aF0.6829852790140363
aF0.7778158165011982
aF0.8563847997261211
aF0.9207463197535091
aF0.9613146182814105
aF0.9809996576514892
aF0.9922971585073604
aF0.9976035604245121
aF0.999828825744608
aF1.0
aF1.0
aF1.0
aF1.0
aF1.0
aF1.0
aF1.0
aF0.999486477233824
aF0.9972612119137282
aF0.9905854159534406
aF0.9751797329681616
aF0.9433413214652516
aF0.8861691201643273
aF0.8108524477918521
aF0.7331393358438891
aF0.6846970215679562
aF0.65662444368367
aF0.640191715166039
aF0.6646696336870934
aF0.7134542964738103
aF0.7908250599109894
aF0.8560424512153372
aF0.9161246148579254
aF0.9572064361520027
aF0.9799726121191373
aF0.9912701129750086
aF0.9977747346799042
aF0.999486477233824
aF1.0
aF1.0
aF1.0
aF1.0
aF1.0
aF1.0
aF1.0
aF0.999657651489216
aF0.9962341663813763
aF0.9873331051009928
aF0.969188634029442
aF0.9349537829510441
aF0.8844573776104074
aF0.8171858952413557
aF0.7608695652173914
aF0.7290311537144814
aF0.7120849024306745
aF0.6963368709346114
aF0.7165354330708661
aF0.7514549811708319
aF0.8113659705580281
aF0.8716193084560082
aF0.9188634029441972
aF0.9606299212598425
aF0.9821978774392331
aF0.9929818555289285
aF0.9984594317014721
aF0.999657651489216
aF1.0
aF1.0
aF1.0
aF1.0
aF1.0
aF1.0
aF1.0
aF0.9993153029784321
aF0.9958918178705922
aF0.9900718931872646
aF0.9748373844573777
aF0.9496747689147552
aF0.9145840465593975
aF0.8741869222868881
aF0.845258473125642
aF0.8272851763094831
aF0.8132488873673399
aF0.8050325231085245
aF0.8216364258815474
aF0.8476549127011298
aF0.8824032865457035
aF0.9200616227319411
aF0.952755905511811
aF0.9762067785005135
aF0.9897295446764807
aF0.9958918178705922
aF0.99914412872304
aF1.0
aF1.0
aF1.0
aF1.0
aF1.0
aF1.0
aF1.0
aF1.0
aF0.999828825744608
aF0.998630605956864
aF0.9972612119137282
aF0.9921259842519685
aF0.9827114002054091
aF0.9731256419034577
aF0.9669633687093461
aF0.9633687093461143
aF0.952927079767203
aF0.9447107155083876
aF0.9472783293392674
aF0.9522423827456351
aF0.9652516261554263
aF0.9736391646696337
aF0.985450188291681
aF0.9933242040397124
aF0.9969188634029442
aF0.9981170831906881
aF0.9993153029784321
aF1.0
aF1.0
aF1.0
aF1.0
aF1.0
aF1.0
aF1.0
aF1.0
aF1.0
aF0.999828825744608
aF0.999828825744608
aF1.0
aF0.999486477233824
aF0.99914412872304
aF0.9982882574460801
aF0.998630605956864
aF0.9982882574460801
aF0.9988017802122561
aF0.9979459089352961
aF0.9984594317014721
aF0.9989729544676481
aF0.99914412872304
aF0.9993153029784321
aF0.999657651489216
aF1.0
aF1.0
aF1.0
aF0.999828825744608
aF1.0
aF1.0
aF1.0
aF1.0
aF1.0
aF1.0
aF1.0
aF1.0
aF1.0
aF1.0
aF1.0
aF1.0
aF1.0
aF1.0
aF1.0
aF1.0
aF1.0
aF1.0
aF1.0
aF1.0
aF1.0
aF1.0
aF1.0
aF1.0
aF1.0
aF1.0
aF1.0
aF1.0
aF1.0
aF1.0
aF1.0
aF1.0
aaa.