(lp0
(lp1
I6
aI9
aa(lp2
F0.49869385691413165
aF0.5013061430858684
aa(lp3
(lp4
F1.0
aF1.0
aF1.0
aF1.0
aF1.0
aF1.0
aF1.0
aF1.0
aF1.0
aF1.0
aF1.0
aF1.0
aF0.9998310239945928
aF0.9998310239945928
aF1.0
aF1.0
aF1.0
aF1.0
aF1.0
aF1.0
aF1.0
aF1.0
aF1.0
aF1.0
aF1.0
aF1.0
aF1.0
aF1.0
aF1.0
aF1.0
aF1.0
aF1.0
aF1.0
aF1.0
aF0.9994930719837783
aF0.9989861439675566
aF0.9984792159513349
aF0.9974653599188915
aF0.9947617438323758
aF0.9932409597837107
aF0.992734031767489
aF0.9920581277458601
aF0.9922271037512673
aF0.9935789117945252
aF0.9932409597837107
aF0.9939168638053396
aF0.9957755998648192
aF0.9966204798918553
aF0.9974653599188915
aF0.9991551199729638
aF0.999324095978371
aF0.9998310239945928
aF1.0
aF1.0
aF1.0
aF1.0
aF1.0
aF1.0
aF1.0
aF1.0
aF0.9996620479891856
aF1.0
aF0.9986481919567421
aF0.9952686718485975
aF0.9908752957080095
aF0.983271375464684
aF0.9702602230483272
aF0.9530246704967894
aF0.929368029739777
aF0.9060493409935789
aF0.8761405880364989
aF0.8546806353497803
aF0.8506252112200068
aF0.8589050354849611
aF0.8774923960797567
aF0.9117945251774248
aF0.9484623183507942
aF0.9726258871240284
aF0.9874957755998648
aF0.9959445758702264
aF0.9984792159513349
aF0.9996620479891856
aF1.0
aF1.0
aF1.0
aF1.0
aF0.9998310239945928
aF0.9998310239945928
aF1.0
aF0.9989861439675566
aF0.9966204798918553
aF0.9901993916863805
aF0.9805677593781683
aF0.9635011828320379
aF0.9351132139236229
aF0.9006421088205475
aF0.857384251436296
aF0.7973977695167286
aF0.7262588712402839
aF0.6694829334234539
aF0.6453193646502197
aF0.6566407570125042
aF0.7056437985806016
aF0.7879351132139236
aF0.8695505238256168
aF0.9325785738425144
aF0.9680635349780331
aF0.9886786076377154
aF0.9952686718485975
aF0.999324095978371
aF0.9998310239945928
aF1.0
aF1.0
aF1.0
aF1.0
aF1.0
aF0.9996620479891856
aF0.997803311929706
aF0.9947617438323758
aF0.9858060155457925
aF0.9690773910104765
aF0.9401824940858398
aF0.9043595809395066
aF0.8567083474146672
aF0.787428185197702
aF0.6966880702940182
aF0.6125380196012167
aF0.5525515376816492
aF0.5376816492058127
aF0.574180466373775
aF0.6595133491044272
aF0.7581953362622508
aF0.8585670834741467
aF0.9207502534640081
aF0.9631632308212233
aF0.9851301115241635
aF0.9944237918215614
aF0.9988171679621494
aF1.0
aF1.0
aF1.0
aF1.0
aF1.0
aF1.0
aF0.9991551199729638
aF0.9967894558972626
aF0.9918891517404529
aF0.98107468739439
aF0.9560662385941197
aF0.9183845893883069
aF0.8683676917877662
aF0.8070294018249409
aF0.7063197026022305
aF0.6127069956066239
aF0.5287259209192294
aF0.4994930719837783
aF0.5243325447786414
aF0.6052720513687057
aF0.7134166948293342
aF0.8163230821223386
aF0.8947279486312943
aF0.9457587022642785
aF0.9741466711726935
aF0.9866508955728287
aF0.9935789117945252
aF0.9984792159513349
aF0.9998310239945928
aF1.0
aF1.0
aF1.0
aF1.0
aF1.0
aF0.9991551199729638
aF0.9962825278810409
aF0.9900304156809733
aF0.9727948631294356
aF0.9415343021290977
aF0.8920243325447786
aF0.8284893545116594
aF0.7348766475160528
aF0.6250422440013518
aF0.5322744170327813
aF0.4852990875295708
aF0.5025346400811085
aF0.5868536667793174
aF0.7068266306184522
aF0.8110848259547144
aF0.8969246367015884
aF0.9450827982426495
aF0.9702602230483272
aF0.9844542075025347
aF0.9920581277458601
aF0.9967894558972626
aF0.9984792159513349
aF0.9998310239945928
aF0.9998310239945928
aF1.0
aF1.0
aF1.0
aF1.0
aF0.999324095978371
aF0.9957755998648192
aF0.9868198715782359
aF0.9604596147347076
aF0.919905373436972
aF0.8563703954038526
aF0.7717134166948293
aF0.6556269009800608
aF0.5510307536329841
aF0.47887799932409597
aF0.4780331192970598
aF0.5579587698546806
aF0.6948293342345387
aF0.8159851301115242
aF0.9060493409935789
aF0.9525177424805678
aF0.9729638391348429
aF0.983271375464684
aF0.9898614396755661
aF0.9954376478540047
aF0.9976343359242987
aF0.9989861439675566
aF0.9994930719837783
aF0.9998310239945928
aF1.0
aF1.0
aF1.0
aF1.0
aF0.9994930719837783
aF0.9952686718485975
aF0.9814126394052045
aF0.9464346062859074
aF0.8913484285231497
aF0.8119297059817506
aF0.7034471105103075
aF0.578573842514363
aF0.4798918553565394
aF0.4516728624535316
aF0.5163906725245015
aF0.6603582291314634
aF0.8038188577222034
aF0.9041906049340993
aF0.9565731666103413
aF0.9746535991889151
aF0.9798918553565393
aF0.9849611355187563
aF0.9917201757350457
aF0.9957755998648192
aF0.9988171679621494
aF0.9996620479891856
aF0.9996620479891856
aF1.0
aF1.0
aF1.0
aF1.0
aF1.0
aF0.999324095978371
aF0.9935789117945252
aF0.9727948631294356
aF0.9286921257181481
aF0.855187563366002
aF0.7585332882730652
aF0.6243663399797229
aF0.4994930719837783
aF0.4249746535991889
aF0.4558972625887124
aF0.6003717472118959
aF0.7703616086515714
aF0.8871240283879689
aF0.9486312943562014
aF0.9635011828320379
aF0.9614734707671511
aF0.9631632308212233
aF0.9702602230483272
aF0.9837783034809057
aF0.9922271037512673
aF0.9979722879351132
aF0.999324095978371
aF0.9996620479891856
aF1.0
aF1.0
aF1.0
aF1.0
aF1.0
aF0.999324095978371
aF0.9901993916863805
aF0.9611355187563366
aF0.9021628928692126
aF0.8175059141601893
aF0.6911118621155796
aF0.5422440013518081
aF0.42615748563703953
aF0.40621831699898614
aF0.5147009124704292
aF0.7090233186887462
aF0.8480905711388983
aF0.914160189253126
aF0.9210882054748226
aF0.9109496451503887
aF0.9043595809395066
aF0.909766813112538
aF0.931564717810071
aF0.9564041906049341
aF0.9812436633997972
aF0.993409935789118
aF0.9989861439675566
aF0.9996620479891856
aF1.0
aF1.0
aF1.0
aF1.0
aF1.0
aF0.9989861439675566
aF0.9861439675566069
aF0.9481243663399798
aF0.879858060155458
aF0.7664751605272051
aF0.6054410273741129
aF0.45555931057789795
aF0.3764785400473133
aF0.43545116593443733
aF0.604765123352484
aF0.7837107130787428
aF0.8611017235552552
aF0.8497803311929706
aF0.8110848259547144
aF0.7830348090571139
aF0.7879351132139236
aF0.8197026022304833
aF0.8626225076039202
aF0.9116255491720175
aF0.9525177424805678
aF0.9846231835079419
aF0.9976343359242987
aF0.9998310239945928
aF0.9998310239945928
aF1.0
aF1.0
aF1.0
aF1.0
aF0.9989861439675566
aF0.981750591416019
aF0.9346062859074011
aF0.8484285231497127
aF0.7071645826292666
aF0.5285569449138222
aF0.3796890841500507
aF0.3589050354849611
aF0.48698884758364314
aF0.6694829334234539
aF0.7708685366677932
aF0.7470429199053734
aF0.6679621493747888
aF0.6127069956066239
aF0.599019939168638
aF0.6257181480229808
aF0.6814802298073673
aF0.758364312267658
aF0.8494423791821561
aF0.9195674214261574
aF0.9668807029401825
aF0.9952686718485975
aF0.9996620479891856
aF0.9998310239945928
aF1.0
aF1.0
aF1.0
aF1.0
aF0.9989861439675566
aF0.9787090233186887
aF0.9195674214261574
aF0.8110848259547144
aF0.6358567083474147
aF0.4474484623183508
aF0.3298411625549172
aF0.37309901993916866
aF0.5425819533626225
aF0.6647516052720513
aF0.6416018925312605
aF0.5368367691787767
aF0.4491382223724231
aF0.4172017573504562
aF0.4349442379182156
aF0.48732679959445757
aF0.5679283541737074
aF0.6677931733693816
aF0.781683001013856
aF0.8790131801284218
aF0.9457587022642785
aF0.9915511997296383
aF0.9996620479891856
aF1.0
aF1.0
aF1.0
aF1.0
aF1.0
aF0.9994930719837783
aF0.9746535991889151
aF0.9038526529232849
aF0.7688408246029064
aF0.574180466373775
aF0.3768164920581277
aF0.3073673538357553
aF0.4018249408583981
aF0.5503548496113552
aF0.5753632984116256
aF0.46924636701588374
aF0.3560324433930382
aF0.31784386617100374
aF0.34690773910104766
aF0.39472794863129435
aF0.428692125718148
aF0.49391686380533967
aF0.6051030753632984
aF0.7309901993916864
aF0.8506252112200068
aF0.9322406218316999
aF0.9849611355187563
aF0.9996620479891856
aF1.0
aF1.0
aF1.0
aF1.0
aF1.0
aF0.999324095978371
aF0.9702602230483272
aF0.8876309564041907
aF0.7328489354511659
aF0.521122000675904
aF0.3310239945927678
aF0.29537005745184186
aF0.41314633322068267
aF0.5101385603244339
aF0.46704967894558974
aF0.3595809395065901
aF0.3350794187225414
aF0.3820547482257519
aF0.4400135180804326
aF0.45302467049678946
aF0.4371409259885096
aF0.4602906387293004
aF0.5608313619466035
aF0.7086853666779317
aF0.8415005069280163
aF0.9337614058803649
aF0.9820885434268334
aF0.9996620479891856
aF1.0
aF1.0
aF1.0
aF1.0
aF1.0
aF0.9981412639405205
aF0.9690773910104765
aF0.8800270361608652
aF0.7063197026022305
aF0.488340655626901
aF0.3105778979384927
aF0.2874281851977019
aF0.3881378844204123
aF0.4509969584319027
aF0.4158499493071984
aF0.39236228455559313
aF0.45234876647516054
aF0.5434268333896587
aF0.5603244339303819
aF0.49577559986481917
aF0.41770868536667793
aF0.44035147009124703
aF0.5650557620817844
aF0.7194998310239946
aF0.8572152754308888
aF0.9389996620479892
aF0.9837783034809057
aF0.9996620479891856
aF1.0
aF1.0
aF1.0
aF1.0
aF1.0
aF0.997803311929706
aF0.9702602230483272
aF0.8859411963501183
aF0.7127407908077054
aF0.48614396755660694
aF0.3039878337276107
aF0.2581953362622508
aF0.3276444744846232
aF0.4112875971612031
aF0.4290300777289625
aF0.4765123352483947
aF0.5680973301791146
aF0.6074687394389997
aF0.5444406894221021
aF0.41990537343697193
aF0.35806015545792497
aF0.4327475498479216
aF0.60256843528219
aF0.7647854004731328
aF0.8893207164582629
aF0.9589388306860426
aF0.9891855356539372
aF0.9994930719837783
aF1.0
aF1.0
aF1.0
aF1.0
aF0.9998310239945928
aF0.9969584319026699
aF0.9746535991889151
aF0.9021628928692126
aF0.7412977357215276
aF0.5250084488002703
aF0.3104089219330855
aF0.21054410273741128
aF0.2389320716458263
aF0.34065562690098006
aF0.4165258533288273
aF0.47820209530246705
aF0.5030415680973301
aF0.4602906387293004
aF0.3612706995606624
aF0.29215951334910445
aF0.3420074349442379
aF0.502196688070294
aF0.6811422777965529
aF0.8342345386955052
aF0.9280162216965191
aF0.9790469753295032
aF0.9950996958431902
aF0.9998310239945928
aF1.0
aF1.0
aF1.0
aF1.0
aF1.0
aF0.9974653599188915
aF0.983271375464684
aF0.9313957418046638
aF0.804156809733018
aF0.6029063872930044
aF0.3732679959445759
aF0.18992903007772896
aF0.15579587698546807
aF0.20496789455897263
aF0.28033119297059816
aF0.3159851301115242
aF0.29182156133828996
aF0.24062183169989862
aF0.2179790469753295
aF0.2875971612031092
aF0.4486312943562014
aF0.6345049003041568
aF0.7995944575870226
aF0.9062183169989861
aF0.9672186549509969
aF0.9915511997296383
aF0.9986481919567421
aF0.9998310239945928
aF1.0
aF1.0
aF1.0
aF1.0
aF1.0
aF0.9984792159513349
aF0.9920581277458601
aF0.964346062859074
aF0.885772220344711
aF0.736566407570125
aF0.5185873605947955
aF0.29705981750591415
aF0.15089557282865834
aF0.11372085163906726
aF0.12183169989861439
aF0.13315309226089894
aF0.1454883406556269
aF0.18401486988847585
aF0.2919905373436972
aF0.4567421426157486
aF0.6478540047313281
aF0.8028050016897601
aF0.9084150050692802
aF0.9662047989185536
aF0.9896924636701588
aF0.9981412639405205
aF0.9991551199729638
aF0.9998310239945928
aF1.0
aF1.0
aF1.0
aF1.0
aF1.0
aF0.9998310239945928
aF0.9976343359242987
aF0.9869888475836431
aF0.95420750253464
aF0.8758026360256843
aF0.736566407570125
aF0.5461304494761744
aF0.3540047313281514
aF0.23470767151064548
aF0.18164920581277458
aF0.19770192632646164
aF0.2793173369381548
aF0.41314633322068267
aF0.5721527543088881
aF0.7363974315647178
aF0.8570462994254816
aF0.9351132139236229
aF0.9746535991889151
aF0.990537343697195
aF0.997803311929706
aF0.999324095978371
aF0.9998310239945928
aF0.9998310239945928
aF1.0
aF1.0
aF1.0
aF1.0
aF1.0
aF1.0
aF0.9998310239945928
aF0.999324095978371
aF0.9907063197026023
aF0.9721189591078067
aF0.9384927340317675
aF0.8644812436633998
aF0.7857384251436296
aF0.7098681987157823
aF0.6684690773910105
aF0.6755660696181143
aF0.7279486312943562
aF0.8055086177762758
aF0.8774923960797567
aF0.935958093950659
aF0.971612031091585
aF0.9868198715782359
aF0.9952686718485975
aF0.9983102399459277
aF0.9996620479891856
aF1.0
aF1.0
aF0.9998310239945928
aF1.0
aF1.0
aF1.0
aF1.0
aF1.0
aF1.0
aF1.0
aF1.0
aF0.9998310239945928
aF0.9981412639405205
aF0.994930719837783
aF0.990537343697195
aF0.9841162554917202
aF0.9756674552213586
aF0.9678945589726259
aF0.966542750929368
aF0.9711051030753634
aF0.9802298073673539
aF0.9881716796214938
aF0.9932409597837107
aF0.9961135518756337
aF0.9979722879351132
aF0.9991551199729638
aF0.9998310239945928
aF1.0
aF1.0
aF1.0
aF1.0
aF1.0
aF1.0
aF1.0
aF1.0
aF1.0
aF1.0
aF1.0
aF1.0
aF1.0
aF1.0
aF1.0
aF1.0
aF0.9996620479891856
aF0.999324095978371
aF0.9991551199729638
aF0.9988171679621494
aF0.9986481919567421
aF0.9986481919567421
aF0.9991551199729638
aF0.9994930719837783
aF0.9998310239945928
aF1.0
aF1.0
aF1.0
aF1.0
aF1.0
aF1.0
aF1.0
aF1.0
aF1.0
aF1.0
aF1.0
aF1.0
aF1.0
aF1.0
aF1.0
aF1.0
aF1.0
aF1.0
aF1.0
aF1.0
aF0.9998310239945928
aF1.0
aF1.0
aF1.0
aF1.0
aF1.0
aF1.0
aF1.0
aF1.0
aF1.0
aF1.0
aF1.0
aF1.0
aF1.0
aF1.0
aF1.0
aF1.0
aF1.0
aF1.0
aF1.0
aF1.0
aF1.0
aF1.0
aF1.0
aF1.0
aF1.0
aF1.0
aF1.0
aF1.0
aF1.0
aF1.0
aF1.0
aF1.0
aF1.0
aF1.0
aF1.0
aF1.0
aF1.0
aF1.0
aF1.0
aF1.0
aF1.0
aF1.0
aF1.0
aF1.0
aF1.0
aF1.0
aF1.0
aF1.0
aF1.0
aF1.0
aF1.0
aF1.0
aF1.0
aF1.0
aF1.0
aF1.0
aF1.0
aF1.0
aF1.0
aF1.0
aF1.0
aF1.0
aF1.0
aF1.0
aF1.0
aF1.0
aF1.0
aF1.0
aF1.0
aF1.0
aF1.0
aa(lp5
F1.0
aF1.0
aF1.0
aF1.0
aF1.0
aF1.0
aF1.0
aF1.0
aF1.0
aF1.0
aF1.0
aF1.0
aF1.0
aF1.0
aF1.0
aF1.0
aF1.0
aF1.0
aF1.0
aF1.0
aF1.0
aF1.0
aF1.0
aF1.0
aF1.0
aF1.0
aF1.0
aF1.0
aF1.0
aF1.0
aF1.0
aF1.0
aF1.0
aF1.0
aF1.0
aF1.0
aF1.0
aF1.0
aF1.0
aF1.0
aF1.0
aF1.0
aF1.0
aF1.0
aF1.0
aF1.0
aF1.0
aF1.0
aF1.0
aF1.0
aF1.0
aF1.0
aF1.0
aF1.0
aF1.0
aF1.0
aF1.0
aF1.0
aF1.0
aF1.0
aF1.0
aF1.0
aF1.0
aF1.0
aF1.0
aF1.0
aF1.0
aF1.0
aF1.0
aF1.0
aF1.0
aF1.0
aF1.0
aF1.0
aF1.0
aF1.0
aF1.0
aF1.0
aF1.0
aF1.0
aF1.0
aF1.0
aF1.0
aF1.0
aF1.0
aF1.0
aF1.0
aF1.0
aF1.0
aF1.0
aF1.0
aF1.0
aF1.0
aF1.0
aF1.0
aF1.0
aF1.0
aF1.0
aF1.0
aF1.0
aF1.0
aF1.0
aF0.9998319045217684
aF1.0
aF1.0
aF1.0
aF1.0
aF1.0
aF1.0
aF1.0
aF1.0
aF1.0
aF1.0
aF1.0
aF1.0
aF1.0
aF1.0
aF1.0
aF1.0
aF1.0
aF1.0
aF1.0
aF0.9998319045217684
aF0.9988233316523786
aF0.998150949739452
aF0.9974785678265254
aF0.9969742813918305
aF0.9971423768700622
aF0.9976466633047572
aF0.9986552361741469
aF0.9989914271306102
aF0.9996638090435367
aF0.9996638090435367
aF1.0
aF1.0
aF1.0
aF1.0
aF1.0
aF1.0
aF1.0
aF1.0
aF1.0
aF1.0
aF1.0
aF1.0
aF1.0
aF1.0
aF1.0
aF0.9993276180870735
aF0.9978147587829888
aF0.9936123718271979
aF0.9813414019162885
aF0.9709194822659271
aF0.9581442259203228
aF0.9502437384434359
aF0.9492351655740461
aF0.9556227937468482
aF0.9655404269625147
aF0.9757942511346445
aF0.9852075979156161
aF0.9924357034795764
aF0.9968061859135989
aF0.9991595226088418
aF1.0
aF1.0
aF1.0
aF1.0
aF1.0
aF1.0
aF1.0
aF1.0
aF1.0
aF1.0
aF1.0
aF0.9989914271306102
aF0.9966380904353673
aF0.9887376029584805
aF0.9680618591359892
aF0.9300722810556395
aF0.8616574214153639
aF0.7705496722138174
aF0.6501933097999664
aF0.5521936459909228
aF0.5052950075642966
aF0.5237855101697765
aF0.6127080181543116
aF0.7194486468314002
aF0.8381240544629349
aF0.9199865523617414
aF0.9667170953101362
aF0.9895780803496386
aF0.9979828542612204
aF0.9996638090435367
aF0.9998319045217684
aF1.0
aF1.0
aF1.0
aF1.0
aF1.0
aF1.0
aF1.0
aF0.9989914271306102
aF0.9937804673054295
aF0.9788199697428139
aF0.944192301227097
aF0.8782988737602958
aF0.7666834762144898
aF0.5960665658093798
aF0.4150277357539082
aF0.26071608673726676
aF0.1654059505799294
aF0.14338544293158514
aF0.19246932257522273
aF0.3077828206421247
aF0.4876449823499748
aF0.666498571188435
aF0.8140864010758111
aF0.9122541603630863
aF0.9702471003530005
aF0.9914271306101866
aF0.9976466633047572
aF0.9996638090435367
aF1.0
aF1.0
aF1.0
aF1.0
aF1.0
aF1.0
aF0.9989914271306102
aF0.9949571356530509
aF0.9771390149604976
aF0.9413346780971592
aF0.8586317028071945
aF0.72970247100353
aF0.5316859976466634
aF0.3427466801143049
aF0.2240712724827702
aF0.19784837787863507
aF0.2334846192637418
aF0.26256513699781475
aF0.26727181038830056
aF0.3104723482938309
aF0.4020843839300723
aF0.5708522440746344
aF0.7376029584804169
aF0.8656917128929231
aF0.9483946881828879
aF0.9868885526979324
aF0.9966380904353673
aF0.9993276180870735
aF1.0
aF1.0
aF1.0
aF1.0
aF1.0
aF0.9996638090435367
aF0.9969742813918305
aF0.983358547655068
aF0.9463775424441082
aF0.8751050596738947
aF0.743990586653219
aF0.5422760127752564
aF0.34863002185241215
aF0.26491847369305765
aF0.3185409312489494
aF0.4558749369641957
aF0.5676584299882333
aF0.5868213145066398
aF0.5187426458228274
aF0.4163724995797613
aF0.39939485627836613
aF0.5155488317364263
aF0.6888552697932425
aF0.8406454866364095
aF0.9376365775760632
aF0.9838628340897629
aF0.996301899478904
aF0.9996638090435367
aF1.0
aF1.0
aF1.0
aF1.0
aF1.0
aF0.9991595226088418
aF0.9915952260884182
aF0.9652042360060514
aF0.9092284417549168
aF0.7955958984703312
aF0.6034627668515717
aF0.4059505799293999
aF0.2987056648176164
aF0.37317196167423095
aF0.5711884350310976
aF0.7512186922171794
aF0.8292149941166582
aF0.7722306269961338
aF0.6110270633719953
aF0.4299882333165238
aF0.3699781475878299
aF0.463103042528156
aF0.6638090435367289
aF0.8340897629853757
aF0.9374684820978316
aF0.9835266431332997
aF0.996301899478904
aF0.9994957135653051
aF1.0
aF1.0
aF1.0
aF1.0
aF0.9998319045217684
aF0.9974785678265254
aF0.9847033114809212
aF0.9433518238359389
aF0.8675407631534712
aF0.7123886367456715
aF0.5024373844343587
aF0.34207429820137836
aF0.3624138510674063
aF0.5535384098167759
aF0.776769204908388
aF0.8917465120188267
aF0.8804841149773072
aF0.7539082198688856
aF0.5372331484283073
aF0.3333333333333333
aF0.2872751722978652
aF0.4313329971423769
aF0.6555723651033787
aF0.8470331148092116
aF0.9455370650529501
aF0.9868885526979324
aF0.9974785678265254
aF0.9996638090435367
aF1.0
aF1.0
aF1.0
aF1.0
aF0.9996638090435367
aF0.9951252311312826
aF0.9756261556564129
aF0.9295679946209447
aF0.830727853420743
aF0.6552361741469155
aF0.445116826357371
aF0.34425953941838966
aF0.4498234997478568
aF0.6737266767523954
aF0.828878803160195
aF0.8495545469826862
aF0.7658429988233316
aF0.5940494200706001
aF0.37081862497898804
aF0.21196839805009246
aF0.24609178013111446
aF0.4499915952260884
aF0.7070095814422592
aF0.8798117330643805
aF0.9579761304420911
aF0.9892418893931754
aF0.9984871406959153
aF1.0
aF1.0
aF1.0
aF1.0
aF1.0
aF0.9998319045217684
aF0.9947890401748193
aF0.9709194822659271
aF0.922507984535216
aF0.8154311649016641
aF0.6347285258026559
aF0.4362077660110943
aF0.36459909228441756
aF0.4743654395696756
aF0.635569003193814
aF0.7063371995293327
aF0.6648176164061187
aF0.5510169776433014
aF0.3829214994116658
aF0.21129601613716592
aF0.13430828710707682
aF0.25634560430324427
aF0.5261388468650193
aF0.7794587325600941
aF0.9139351151454026
aF0.9737771053958648
aF0.993108085392503
aF0.9989914271306102
aF0.9998319045217684
aF1.0
aF1.0
aF1.0
aF1.0
aF0.9998319045217684
aF0.9954614220877458
aF0.9742813918305597
aF0.9250294167086905
aF0.8216506975962347
aF0.6548999831904522
aF0.4683140023533367
aF0.38493864515044546
aF0.42561775088250126
aF0.48932593713229117
aF0.49369641956631366
aF0.4479744494873088
aF0.36661623802319715
aF0.26138846865019333
aF0.14136829719280553
aF0.12405446293494705
aF0.32761808707345774
aF0.6406118675407632
aF0.8502269288956127
aF0.9445284921835603
aF0.9825180702639099
aF0.994452849218356
aF0.9993276180870735
aF0.9998319045217684
aF1.0
aF1.0
aF1.0
aF1.0
aF1.0
aF0.9961338040006724
aF0.979660447133972
aF0.9408303916624643
aF0.8569507480248781
aF0.716759119179694
aF0.546142208774584
aF0.4304925197512187
aF0.3992267608001345
aF0.40040342914775595
aF0.3955286602790385
aF0.3903177004538578
aF0.36594385611027064
aF0.25298369473861154
aF0.13817448310640443
aF0.1771726340561439
aF0.4390653891410321
aF0.7349134308287107
aF0.893427466801143
aF0.9610018490502605
aF0.985711884350311
aF0.9959657085224407
aF0.9998319045217684
aF0.9998319045217684
aF1.0
aF1.0
aF1.0
aF1.0
aF1.0
aF0.9976466633047572
aF0.9873928391326273
aF0.9593208942679442
aF0.906875105059674
aF0.8060178181206925
aF0.6765842998823332
aF0.5627836611195158
aF0.499075474869726
aF0.4800806858295512
aF0.48831736426290134
aF0.5044545301731383
aF0.4515044545301731
aF0.28878803160194993
aF0.174819297360901
aF0.2713061018658598
aF0.5597579425113465
aF0.80164733568667
aF0.9181375021011935
aF0.9694066229618423
aF0.9862161707850059
aF0.9973104723482938
aF0.9998319045217684
aF1.0
aF1.0
aF1.0
aF1.0
aF1.0
aF1.0
aF0.9986552361741469
aF0.9941166582618928
aF0.9791561606992772
aF0.9502437384434359
aF0.8949403261052278
aF0.8236678433350143
aF0.7473524962178517
aF0.6952428979660447
aF0.6821314506639772
aF0.6841485964027567
aF0.6554042696251471
aF0.5172297865187426
aF0.32106236342242395
aF0.2533198856950748
aF0.39401580097495376
aF0.649016641452345
aF0.8409816775928728
aF0.9300722810556395
aF0.9717599596570852
aF0.9895780803496386
aF0.9971423768700622
aF0.9998319045217684
aF0.9998319045217684
aF1.0
aF1.0
aF1.0
aF1.0
aF0.9998319045217684
aF0.9994957135653051
aF0.9968061859135989
aF0.9910909396537233
aF0.9768028240040343
aF0.9546142208774584
aF0.9251975121869221
aF0.8905698436712053
aF0.8633383761976803
aF0.843166918809884
aF0.8102202050764834
aF0.711716254832745
aF0.5212640779963019
aF0.365775760632039
aF0.34913430828710706
aF0.5091612035636242
aF0.7081862497898807
aF0.861153134980669
aF0.935451336359052
aF0.9739452008740965
aF0.9895780803496386
aF0.9964699949571356
aF0.9998319045217684
aF0.9994957135653051
aF1.0
aF1.0
aF1.0
aF1.0
aF1.0
aF0.9994957135653051
aF0.9988233316523786
aF0.9957976130442091
aF0.9914271306101866
aF0.9825180702639099
aF0.9726004370482434
aF0.9589847033114809
aF0.9428475374012439
aF0.911413682971928
aF0.8354345268112288
aF0.6915447974449487
aF0.5155488317364263
aF0.41889393175323586
aF0.45436207766011094
aF0.5923684652882838
aF0.7515548831736426
aF0.8687174315010926
aF0.9359556227937469
aF0.9742813918305597
aF0.9890737939149437
aF0.9951252311312826
aF0.9994957135653051
aF0.9994957135653051
aF1.0
aF1.0
aF1.0
aF1.0
aF1.0
aF0.9998319045217684
aF0.9989914271306102
aF0.9971423768700622
aF0.9957976130442091
aF0.9920995125231131
aF0.9860480753067743
aF0.9781475878298874
aF0.9544461253992268
aF0.8989746175827871
aF0.7905530341233821
aF0.6348966212808875
aF0.5163893091275845
aF0.48125735417717264
aF0.5421079172970247
aF0.6510337871911246
aF0.7786182551689359
aF0.8744326777609682
aF0.9369641956631367
aF0.9736090099176332
aF0.9880652210455538
aF0.9951252311312826
aF0.9979828542612204
aF0.9989914271306102
aF1.0
aF1.0
aF1.0
aF1.0
aF1.0
aF1.0
aF0.9993276180870735
aF0.9976466633047572
aF0.9961338040006724
aF0.992603798957808
aF0.9847033114809212
aF0.9643637586148932
aF0.9226760800134476
aF0.8421583459404942
aF0.7251638930912758
aF0.5989241889393175
aF0.5405950579929399
aF0.5515212640779963
aF0.610690872415532
aF0.695579088922508
aF0.7971087577744159
aF0.8788031601949907
aF0.9352832408808203
aF0.9694066229618423
aF0.9867204572197008
aF0.994452849218356
aF0.9973104723482938
aF0.9993276180870735
aF1.0
aF1.0
aF1.0
aF1.0
aF1.0
aF0.9998319045217684
aF0.9994957135653051
aF0.9986552361741469
aF0.9956295175659775
aF0.9899142713061019
aF0.9695747184400739
aF0.9359556227937469
aF0.8693898134140191
aF0.7769373003866196
aF0.6663304757102034
aF0.5960665658093798
aF0.5774079677256682
aF0.6098503950243739
aF0.6562447470163053
aF0.7184400739620104
aF0.8080349638594722
aF0.8819969742813918
aF0.9337703815767355
aF0.9660447133972097
aF0.9835266431332997
aF0.9922676080013447
aF0.9971423768700622
aF0.9994957135653051
aF1.0
aF1.0
aF1.0
aF1.0
aF1.0
aF0.9998319045217684
aF0.9996638090435367
aF0.9978147587829888
aF0.9920995125231131
aF0.9793242561775088
aF0.951084215834594
aF0.9038493864515045
aF0.8268616574214154
aF0.7328962850899311
aF0.6560766515380736
aF0.6132123045890066
aF0.6266599428475375
aF0.6542276012775257
aF0.691880988401412
aF0.7404605816103547
aF0.812237350815263
aF0.8789712556732224
aF0.9288956127080181
aF0.9635232812237351
aF0.9815094973945201
aF0.9914271306101866
aF0.9976466633047572
aF0.9998319045217684
aF1.0
aF1.0
aF1.0
aF1.0
aF1.0
aF1.0
aF0.9994957135653051
aF0.9959657085224407
aF0.9882333165237855
aF0.9692385274836107
aF0.9373003866195999
aF0.8840141200201714
aF0.8026559085560598
aF0.7291981845688351
aF0.6772566817952597
aF0.6611195158850227
aF0.683140023533367
aF0.7071776769204908
aF0.731551521264078
aF0.7650025214321735
aF0.8245083207261724
aF0.8821650697596235
aF0.9290637081862498
aF0.9646999495713565
aF0.982013783829215
aF0.9915952260884182
aF0.9984871406959153
aF0.9998319045217684
aF1.0
aF1.0
aF1.0
aF1.0
aF1.0
aF1.0
aF0.9994957135653051
aF0.9957976130442091
aF0.9887376029584805
aF0.9737771053958648
aF0.9416708690536224
aF0.8947722306269962
aF0.8382921499411666
aF0.7868549336022861
aF0.7528996469994957
aF0.7508825012607161
aF0.7744158682131451
aF0.7913935115145403
aF0.8004706673390486
aF0.8265254664649521
aF0.8692217179357875
aF0.9122541603630863
aF0.9480584972264247
aF0.9756261556564129
aF0.989409984871407
aF0.9957976130442091
aF0.9994957135653051
aF0.9998319045217684
aF1.0
aF1.0
aF1.0
aF1.0
aF1.0
aF1.0
aF0.9991595226088418
aF0.9983190452176837
aF0.9961338040006724
aF0.9934442763489663
aF0.9845352160026896
aF0.9720961506135485
aF0.9583123213985544
aF0.9411665826189276
aF0.92805513531686
aF0.9257017986216171
aF0.9302403765338713
aF0.9401580097495378
aF0.9421751554883173
aF0.9509161203563624
aF0.9623466128761137
aF0.9726004370482434
aF0.9830223566986048
aF0.9936123718271979
aF0.9986552361741469
aF0.9996638090435367
aF1.0
aF1.0
aF1.0
aF1.0
aF1.0
aF1.0
aF1.0
aF1.0
aF1.0
aF1.0
aF1.0
aF0.9998319045217684
aF0.9998319045217684
aF0.9996638090435367
aF0.9991595226088418
aF0.9991595226088418
aF0.9988233316523786
aF0.9993276180870735
aF0.9978147587829888
aF0.9988233316523786
aF0.9989914271306102
aF0.9993276180870735
aF0.9993276180870735
aF0.9991595226088418
aF0.9991595226088418
aF0.9996638090435367
aF0.9998319045217684
aF1.0
aF1.0
aF1.0
aF1.0
aF1.0
aaa.