(lp0
(lp1
I2
aI5
aa(lp2
F0.5235960980754021
aF0.4764039019245979
aa(lp3
(lp4
F1.0
aF1.0
aF1.0
aF1.0
aF1.0
aF1.0
aF1.0
aF1.0
aF1.0
aF1.0
aF1.0
aF1.0
aF1.0
aF0.9998321584424303
aF0.9998321584424303
aF1.0
aF1.0
aF1.0
aF1.0
aF1.0
aF1.0
aF1.0
aF1.0
aF1.0
aF1.0
aF1.0
aF1.0
aF1.0
aF1.0
aF1.0
aF1.0
aF1.0
aF1.0
aF1.0
aF1.0
aF1.0
aF0.9996643168848607
aF0.9996643168848607
aF0.999496475327291
aF0.999496475327291
aF0.9998321584424303
aF0.999496475327291
aF0.9991607922121517
aF0.9993286337697214
aF0.9983215844243034
aF0.9993286337697214
aF1.0
aF1.0
aF1.0
aF1.0
aF1.0
aF1.0
aF1.0
aF1.0
aF1.0
aF1.0
aF1.0
aF1.0
aF1.0
aF1.0
aF1.0
aF1.0
aF0.9998321584424303
aF0.998992950654582
aF0.9971466935213159
aF0.9949647532729103
aF0.9914400805639476
aF0.9887546156428332
aF0.9852299429338705
aF0.9833836858006042
aF0.9810339039946291
aF0.9812017455521987
aF0.9865726753944276
aF0.9909365558912386
aF0.996139644175898
aF0.9981537428667338
aF0.9993286337697214
aF0.9998321584424303
aF1.0
aF0.9998321584424303
aF0.9998321584424303
aF0.9998321584424303
aF1.0
aF1.0
aF1.0
aF1.0
aF1.0
aF1.0
aF1.0
aF0.9988251090970124
aF0.9958039610607586
aF0.9874118831822759
aF0.9734810339039947
aF0.9491440080563948
aF0.9192682108089963
aF0.886874790198053
aF0.8566633098355153
aF0.8251090970124203
aF0.8098355152735818
aF0.8165491775763679
aF0.8397113125209802
aF0.8731117824773413
aF0.918932527693857
aF0.9506545820745217
aF0.9756629741524001
aF0.9909365558912386
aF0.9974823766364552
aF0.9996643168848607
aF0.9998321584424303
aF0.9998321584424303
aF1.0
aF1.0
aF1.0
aF1.0
aF1.0
aF1.0
aF0.9993286337697214
aF0.9929506545820745
aF0.9805303793219201
aF0.9528365223229271
aF0.9056730446458543
aF0.8440751930177912
aF0.7673716012084593
aF0.6705270224907687
aF0.5822423632091306
aF0.5189660960053709
aF0.481537428667338
aF0.49647532729103727
aF0.5330647868412219
aF0.6297415240013428
aF0.7269217858341726
aF0.823262839879154
aF0.9018126888217523
aF0.9561933534743202
aF0.9857334676065794
aF0.9983215844243034
aF0.9998321584424303
aF0.9998321584424303
aF1.0
aF1.0
aF1.0
aF1.0
aF1.0
aF0.9996643168848607
aF0.9968110104061766
aF0.9827123195703256
aF0.950990265189661
aF0.8937562940584088
aF0.8100033568311514
aF0.7104733131923464
aF0.6003692514266532
aF0.49580396106075864
aF0.409197717354817
aF0.34206109432695536
aF0.3049681101040618
aF0.3034575360859349
aF0.3464249748237664
aF0.4241356159785163
aF0.5545485062101376
aF0.6943605236656596
aF0.8108425646189996
aF0.9051695199731453
aF0.9629070157771064
aF0.9926149714669352
aF0.999496475327291
aF0.9998321584424303
aF1.0
aF1.0
aF1.0
aF1.0
aF1.0
aF0.9993286337697214
aF0.9932863376972139
aF0.968445787176905
aF0.9147364887546157
aF0.8282980866062437
aF0.7348103390399463
aF0.6294058408862034
aF0.5270224907687143
aF0.44142329640819067
aF0.3848606915072172
aF0.3459214501510574
aF0.32376636455186303
aF0.31738838536421615
aF0.3183954347096341
aF0.37210473313192344
aF0.4622356495468278
aF0.599026518966096
aF0.7359852299429339
aF0.8502853306478684
aF0.9377307821416583
aF0.9867405169519973
aF0.9993286337697214
aF1.0
aF1.0
aF1.0
aF1.0
aF1.0
aF0.9996643168848607
aF0.9991607922121517
aF0.9880832494125545
aF0.9558576703591809
aF0.8898959382343068
aF0.8071500503524672
aF0.7128230949983216
aF0.6297415240013428
aF0.5557233971131252
aF0.503860355824102
aF0.4887546156428332
aF0.4847264182611615
aF0.4765021819402484
aF0.4602215508559919
aF0.41809331990600873
aF0.40550520308828464
aF0.4464585431352803
aF0.5459885867740852
aF0.6822759315206445
aF0.8120174555219872
aF0.9118831822759316
aF0.9798590130916415
aF0.998992950654582
aF0.9998321584424303
aF1.0
aF1.0
aF1.0
aF1.0
aF0.9996643168848607
aF0.9984894259818731
aF0.9872440416247062
aF0.9521651560926485
aF0.8870426317556227
aF0.8187311178247734
aF0.7509231285666331
aF0.6983887210473313
aF0.6522322927156764
aF0.638804968110104
aF0.6416582745887882
aF0.6520644511581067
aF0.6433366901644847
aF0.6059080228264518
aF0.5312185297079557
aF0.4580396106075864
aF0.44729775092312857
aF0.5187982544478013
aF0.6555891238670695
aF0.7918764686136287
aF0.9006377979187646
aF0.9744880832494126
aF0.9996643168848607
aF1.0
aF1.0
aF1.0
aF1.0
aF1.0
aF0.9996643168848607
aF0.9981537428667338
aF0.9865726753944276
aF0.9555219872440416
aF0.9061765693185633
aF0.8583417254112118
aF0.8210808996307486
aF0.7940584088620343
aF0.7693856998992951
aF0.7700570661295737
aF0.7866733803289695
aF0.797079556898288
aF0.7821416582745888
aF0.7136623027861698
aF0.5963410540449815
aF0.4805303793219201
aF0.44662638469284993
aF0.5068815038603558
aF0.6461899966431689
aF0.7905337361530715
aF0.9044981537428667
aF0.9765021819402484
aF0.999496475327291
aF1.0
aF1.0
aF1.0
aF1.0
aF1.0
aF0.9998321584424303
aF0.9983215844243034
aF0.9919436052366566
aF0.9686136287344747
aF0.9338704263175562
aF0.9127223900637798
aF0.8882175226586103
aF0.877139979859013
aF0.8652232292715677
aF0.8726082578046325
aF0.8870426317556227
aF0.8867069486404834
aF0.8439073514602216
aF0.7494125545485062
aF0.6008727760993622
aF0.4791876468613629
aF0.4399127223900638
aF0.504363880496811
aF0.6565961732124874
aF0.8058073178919101
aF0.9169184290030211
aF0.9790198053037932
aF0.9979859013091642
aF0.999496475327291
aF0.9996643168848607
aF1.0
aF1.0
aF1.0
aF1.0
aF0.9991607922121517
aF0.9936220208123532
aF0.9793554884189325
aF0.9627391742195368
aF0.9525008392077878
aF0.9395770392749244
aF0.9306814367237328
aF0.9276602886874791
aF0.9335347432024169
aF0.9348774756629742
aF0.9112118160456529
aF0.8455857670359181
aF0.7156764014770057
aF0.56797583081571
aF0.454347096341054
aF0.4409197717354817
aF0.5240013427324606
aF0.6822759315206445
aF0.8348439073514602
aF0.9353810003356832
aF0.9827123195703256
aF0.9969788519637462
aF0.9988251090970124
aF0.9998321584424303
aF1.0
aF1.0
aF1.0
aF1.0
aF0.9996643168848607
aF0.9963074857334676
aF0.9889224572004028
aF0.9822087948976167
aF0.973313192346425
aF0.9639140651225243
aF0.9560255119167506
aF0.9488083249412554
aF0.9404162470627727
aF0.9217858341725411
aF0.8702584759986572
aF0.7745887881839544
aF0.643672373279624
aF0.5142665323934206
aF0.43739509902651896
aF0.45468277945619334
aF0.5634441087613293
aF0.725243370258476
aF0.8712655253440752
aF0.950990265189661
aF0.9860691507217187
aF0.9947969117153407
aF0.9974823766364552
aF0.9991607922121517
aF1.0
aF1.0
aF1.0
aF1.0
aF0.9996643168848607
aF0.9976502181940249
aF0.9921114467942262
aF0.9813695871097684
aF0.9692849949647533
aF0.9526686807653575
aF0.9306814367237328
aF0.9073514602215509
aF0.8702584759986572
aF0.8209130580731789
aF0.7509231285666331
aF0.6520644511581067
aF0.5471634776770729
aF0.4566968781470292
aF0.4266532393420611
aF0.48892245720040284
aF0.620845921450151
aF0.7797918764686136
aF0.9013091641490433
aF0.9615642833165492
aF0.9825444780127559
aF0.9875797247398456
aF0.9934541792547835
aF0.9978180597515945
aF0.9996643168848607
aF1.0
aF1.0
aF1.0
aF0.999496475327291
aF0.9964753272910373
aF0.9848942598187311
aF0.9608929170862706
aF0.9246391406512252
aF0.8823430681436724
aF0.829640819066801
aF0.7769385699899295
aF0.7150050352467271
aF0.6456864719704599
aF0.5676401477005707
aF0.49580396106075864
aF0.41725411211816044
aF0.3929170862705606
aF0.4295065458207452
aF0.5258475998657267
aF0.6701913393756294
aF0.8148707620006713
aF0.913561597851628
aF0.9587109768378651
aF0.9726418261161464
aF0.9806982208794898
aF0.990768714333669
aF0.9963074857334676
aF1.0
aF1.0
aF1.0
aF1.0
aF0.9973145350788856
aF0.9874118831822759
aF0.9563611950318899
aF0.9008056394763343
aF0.8303121852970795
aF0.7544478012755959
aF0.6765693185632763
aF0.599530043638805
aF0.5229942933870426
aF0.44377307821416584
aF0.37781134608929173
aF0.33400469956361195
aF0.32544478012755956
aF0.3610271903323263
aF0.4375629405840886
aF0.5671366230278617
aF0.7039274924471299
aF0.8224236320913058
aF0.8969452836522323
aF0.9342061094326956
aF0.9499832158442431
aF0.9639140651225243
aF0.9822087948976167
aF0.9939577039274925
aF0.9996643168848607
aF1.0
aF1.0
aF0.9996643168848607
aF0.9932863376972139
aF0.9662638469284995
aF0.8982880161127895
aF0.8031218529707955
aF0.7047667002349782
aF0.6070829137294395
aF0.5240013427324606
aF0.4526686807653575
aF0.3843571668345082
aF0.3180597515944948
aF0.2713997985901309
aF0.26502181940248404
aF0.2923799932863377
aF0.35381000335683116
aF0.45720040281973817
aF0.5720040281973817
aF0.6958710976837865
aF0.7843235985229943
aF0.8464249748237663
aF0.882510909701242
aF0.9088620342396777
aF0.9382343068143673
aF0.9659281638133602
aF0.9921114467942262
aF0.9993286337697214
aF1.0
aF1.0
aF0.9991607922121517
aF0.9840550520308828
aF0.9310171198388721
aF0.8316549177576368
aF0.7037596508895603
aF0.5961732124874118
aF0.5077207116482041
aF0.44662638469284993
aF0.40114132259147367
aF0.342732460557234
aF0.30060422960725075
aF0.27022490768714336
aF0.2762672037596509
aF0.30832494125545484
aF0.37210473313192344
aF0.4561933534743202
aF0.5469956361195032
aF0.6362873447465592
aF0.7087948976166499
aF0.7687143336690164
aF0.8116817724068479
aF0.8588452500839208
aF0.9031554212823095
aF0.9516616314199395
aF0.99026518966096
aF0.9998321584424303
aF1.0
aF1.0
aF0.999496475327291
aF0.9704598858677409
aF0.8919100369251427
aF0.76703591809332
aF0.6319234642497482
aF0.5199731453507889
aF0.45686471970459885
aF0.40584088620342396
aF0.3600201409869084
aF0.3306478684122189
aF0.29506545820745217
aF0.28348439073514603
aF0.3048002685464921
aF0.3403826787512588
aF0.3808324941255455
aF0.4337025847599866
aF0.4919436052366566
aF0.55824102047667
aF0.6201745552198724
aF0.6809331990600873
aF0.738335011748909
aF0.8034575360859348
aF0.8751258811681772
aF0.9514937898623699
aF0.9941255454850622
aF0.999496475327291
aF1.0
aF1.0
aF0.9988251090970124
aF0.9603893924135616
aF0.8687479019805304
aF0.7338032896945283
aF0.5882846592816381
aF0.467942262504196
aF0.39039946290701577
aF0.3392077878482712
aF0.3044645854313528
aF0.28415575696542467
aF0.2863376972138301
aF0.3004363880496811
aF0.33903994629070155
aF0.38049681101040617
aF0.4149043303121853
aF0.4434373950990265
aF0.4719704598858677
aF0.5057066129573683
aF0.552870090634441
aF0.6215172876804297
aF0.6990600872776099
aF0.7848271231957032
aF0.8794897616649883
aF0.9548506210137631
aF0.9937898623699228
aF0.9996643168848607
aF1.0
aF1.0
aF0.9981537428667338
aF0.9587109768378651
aF0.8669016448472642
aF0.7457200402819738
aF0.5886203423967774
aF0.4566968781470292
aF0.34659281638133604
aF0.27794561933534745
aF0.2583081570996979
aF0.2670359180933199
aF0.30513595166163143
aF0.37009063444108764
aF0.4316884860691507
aF0.4783484390735146
aF0.49530043638804966
aF0.5055387713997986
aF0.5040281973816717
aF0.5265189660960053
aF0.5708291372943941
aF0.6411547499160792
aF0.7275931520644512
aF0.8162134944612286
aF0.8992950654582075
aF0.9697885196374623
aF0.99513259483048
aF1.0
aF1.0
aF0.9998321584424303
aF0.9976502181940249
aF0.9704598858677409
aF0.8991272239006378
aF0.7940584088620343
aF0.6572675394427661
aF0.5199731453507889
aF0.4031554212823095
aF0.33434038267875127
aF0.32779456193353473
aF0.36253776435045315
aF0.42984222893588453
aF0.5040281973816717
aF0.56797583081571
aF0.615978516280631
aF0.6278952668680765
aF0.6206780798925814
aF0.6141322591473649
aF0.6230278616985566
aF0.6638133601879825
aF0.7287680429674387
aF0.8046324269889225
aF0.8764686136287345
aF0.9380664652567976
aF0.9837193689157435
aF0.9983215844243034
aF1.0
aF1.0
aF1.0
aF0.998992950654582
aF0.9853977844914401
aF0.947129909365559
aF0.8763007720711649
aF0.7814702920443102
aF0.6799261497146694
aF0.5874454514937899
aF0.5374286673380329
aF0.5344075193017791
aF0.5691507217186975
aF0.6300772071164821
aF0.6950318898959382
aF0.7460557233971131
aF0.7727425310506881
aF0.7777777777777778
aF0.7724068479355488
aF0.7651896609600537
aF0.7789526686807654
aF0.8031218529707955
aF0.8459214501510574
aF0.8898959382343068
aF0.9337025847599866
aF0.9714669352131587
aF0.9941255454850622
aF0.9998321584424303
aF1.0
aF1.0
aF1.0
aF0.9998321584424303
aF0.9968110104061766
aF0.9865726753944276
aF0.963074857334676
aF0.9283316549177576
aF0.8862034239677744
aF0.846592816381336
aF0.8230949983215844
aF0.8175562269217859
aF0.8306478684122188
aF0.8536421617992614
aF0.8796576032225579
aF0.8979523329976502
aF0.909701242027526
aF0.910708291372944
aF0.9120510238335012
aF0.9147364887546157
aF0.9209466263846928
aF0.9303457536085935
aF0.941255454850621
aF0.9600537092984223
aF0.9793554884189325
aF0.9927828130245049
aF0.9988251090970124
aF1.0
aF1.0
aF1.0
aF1.0
aF1.0
aF1.0
aF0.9991607922121517
aF0.9971466935213159
aF0.9939577039274925
aF0.9904330312185297
aF0.9867405169519973
aF0.9838872104733132
aF0.982040953340047
aF0.9803625377643505
aF0.9790198053037932
aF0.9796911715340718
aF0.9801946962067808
aF0.9815374286673381
aF0.9828801611278952
aF0.9833836858006042
aF0.9853977844914401
aF0.9882510909701242
aF0.9892581403155422
aF0.990768714333669
aF0.9931184961396442
aF0.9968110104061766
aF0.9981537428667338
aF0.999496475327291
aF1.0
aF1.0
aF1.0
aF1.0
aF1.0
aF1.0
aF1.0
aF1.0
aF0.9998321584424303
aF0.9996643168848607
aF0.9996643168848607
aF0.9996643168848607
aF0.999496475327291
aF0.9991607922121517
aF0.9993286337697214
aF0.9986572675394427
aF0.9974823766364552
aF0.9974823766364552
aF0.9979859013091642
aF0.9981537428667338
aF0.9984894259818731
aF0.998992950654582
aF0.9991607922121517
aF0.9993286337697214
aF0.9998321584424303
aF1.0
aF1.0
aF1.0
aF0.9998321584424303
aF1.0
aF1.0
aF1.0
aF1.0
aF1.0
aF1.0
aF1.0
aF1.0
aF1.0
aF1.0
aF1.0
aF1.0
aF1.0
aF1.0
aF1.0
aF1.0
aF1.0
aF1.0
aF1.0
aF1.0
aF1.0
aF1.0
aF1.0
aF1.0
aF1.0
aF1.0
aF1.0
aF1.0
aF1.0
aF1.0
aF1.0
aF1.0
aF1.0
aF1.0
aF1.0
aF1.0
aF1.0
aF1.0
aF1.0
aF1.0
aF1.0
aF1.0
aF1.0
aF1.0
aF1.0
aF1.0
aF1.0
aF1.0
aF1.0
aF1.0
aF1.0
aF1.0
aF1.0
aF1.0
aF1.0
aF1.0
aF1.0
aa(lp5
F1.0
aF1.0
aF1.0
aF1.0
aF1.0
aF1.0
aF1.0
aF1.0
aF1.0
aF1.0
aF1.0
aF1.0
aF1.0
aF1.0
aF1.0
aF1.0
aF1.0
aF1.0
aF1.0
aF1.0
aF1.0
aF1.0
aF1.0
aF1.0
aF1.0
aF1.0
aF1.0
aF1.0
aF1.0
aF1.0
aF1.0
aF1.0
aF1.0
aF1.0
aF1.0
aF1.0
aF1.0
aF1.0
aF1.0
aF1.0
aF1.0
aF1.0
aF1.0
aF1.0
aF1.0
aF1.0
aF1.0
aF1.0
aF1.0
aF1.0
aF1.0
aF1.0
aF1.0
aF1.0
aF1.0
aF1.0
aF1.0
aF1.0
aF1.0
aF1.0
aF1.0
aF1.0
aF1.0
aF1.0
aF1.0
aF1.0
aF1.0
aF1.0
aF1.0
aF1.0
aF1.0
aF0.9998155321896329
aF0.9994465965688988
aF0.9992621287585316
aF0.9990776609481645
aF0.9992621287585316
aF0.9994465965688988
aF0.9996310643792659
aF0.9996310643792659
aF1.0
aF1.0
aF1.0
aF1.0
aF1.0
aF1.0
aF1.0
aF1.0
aF1.0
aF1.0
aF1.0
aF1.0
aF1.0
aF0.9998155321896329
aF0.9994465965688988
aF0.9987087253274304
aF0.998155321896329
aF0.9964951116030253
aF0.9948349013097214
aF0.9909610772920125
aF0.988009592326139
aF0.9883785279468733
aF0.9870872532743037
aF0.9856115107913669
aF0.9870872532743037
aF0.9881940601365061
aF0.9907766094816455
aF0.9931746910164176
aF0.9970485150341265
aF0.9983397897066962
aF0.9996310643792659
aF1.0
aF1.0
aF1.0
aF1.0
aF1.0
aF1.0
aF1.0
aF0.9998155321896329
aF0.9988931931377975
aF0.9966795794133924
aF0.9937280944475189
aF0.9850581073602657
aF0.9699317469101641
aF0.9546209186496957
aF0.9376498800959233
aF0.9227079874561889
aF0.9038922707987456
aF0.8882125069175429
aF0.8760376314333149
aF0.8710570005534034
aF0.8797269876406567
aF0.8911639918834163
aF0.9061058845231507
aF0.9151448072311381
aF0.9330381848367459
aF0.9536985795978602
aF0.977679394945582
aF0.993912562257886
aF0.9990776609481645
aF1.0
aF1.0
aF1.0
aF1.0
aF1.0
aF1.0
aF0.9987087253274304
aF0.993912562257886
aF0.9835823648773289
aF0.9643977125991514
aF0.9335915882678473
aF0.8887659103486442
aF0.8352702453421877
aF0.7814056447149972
aF0.7299391256225789
aF0.6871425936174138
aF0.6594724220623501
aF0.6447149972329829
aF0.6410256410256411
aF0.6493266924921601
aF0.6745987825124515
aF0.7019000184467811
aF0.7454344216934145
aF0.7987456188895038
aF0.8542704298099981
aF0.9164360819037078
aF0.9747279099797086
aF0.9942814978786202
aF1.0
aF1.0
aF1.0
aF0.9998155321896329
aF1.0
aF0.9990776609481645
aF0.9948349013097214
aF0.9843202361187973
aF0.961446227633278
aF0.924921601180594
aF0.864047223759454
aF0.7766094816454528
aF0.6865891901863125
aF0.6011805939863494
aF0.5297915513742852
aF0.4799852425751706
aF0.4609850581073603
aF0.4548976203652463
aF0.4565578306585501
aF0.47094631986718316
aF0.509131156613171
aF0.5581995941708172
aF0.6196273750230584
aF0.6801328168234643
aF0.7528131341080981
aF0.841726618705036
aF0.9359896698026194
aF0.9859804464121011
aF0.9990776609481645
aF1.0
aF1.0
aF1.0
aF1.0
aF0.9992621287585316
aF0.991698948533481
aF0.973621103117506
aF0.9378343479062904
aF0.8767755026747832
aF0.7878620180778454
aF0.6745987825124515
aF0.5617044825677919
aF0.4764803541781959
aF0.42335362479247374
aF0.40029514849658737
aF0.40619811842833425
aF0.41062534587714444
aF0.42501383508577756
aF0.446227633277993
aF0.48367459878251245
aF0.5360634569267663
aF0.5904814609850582
aF0.648957756871426
aF0.7083563918096292
aF0.7994834901309722
aF0.9055524810920494
aF0.9806308799114555
aF0.9992621287585316
aF1.0
aF1.0
aF1.0
aF1.0
aF0.9990776609481645
aF0.9889319313779745
aF0.9645821804095185
aF0.9162516140933407
aF0.8308430178933776
aF0.7225604132078952
aF0.6035786755211215
aF0.492897989300867
aF0.42907212691385355
aF0.423907028223575
aF0.43571296808706883
aF0.4668880280391072
aF0.49824755580151264
aF0.5187234827522598
aF0.5502674783250323
aF0.5825493451392731
aF0.6161224866260837
aF0.6568898727172109
aF0.7074340527577938
aF0.7507839881940601
aF0.8175613355469471
aF0.9077660948164545
aF0.9808153477218226
aF0.9990776609481645
aF1.0
aF1.0
aF1.0
aF1.0
aF0.9983397897066962
aF0.9861649142224682
aF0.9542519830289614
aF0.8937465412285556
aF0.7838037262497695
aF0.6629773104593248
aF0.5366168603578676
aF0.44087806677734737
aF0.4342372256041321
aF0.4755580151263604
aF0.5384615384615384
aF0.594355285002767
aF0.6345692676627929
aF0.6709094263051097
aF0.6989485334809076
aF0.7216380741560597
aF0.7568714259361742
aF0.7766094816454528
aF0.8074156059767571
aF0.8382217303080612
aF0.8767755026747832
aF0.9359896698026194
aF0.9885629957572404
aF0.9990776609481645
aF1.0
aF1.0
aF1.0
aF1.0
aF0.9963106437926582
aF0.9828444936358606
aF0.9437373178380373
aF0.8629404168972514
aF0.7395314517616676
aF0.592326139088729
aF0.4587714443829552
aF0.39162516140933407
aF0.421877882309537
aF0.5198302896144623
aF0.6199963106437927
aF0.6963659841357683
aF0.7474635676074525
aF0.7926581811473897
aF0.8260468548238332
aF0.8612802066039477
aF0.8828629404168973
aF0.8989116399188342
aF0.9153292750415053
aF0.9273196827153661
aF0.9448441247002398
aF0.971407489393101
aF0.9940970300682531
aF0.9998155321896329
aF1.0
aF1.0
aF1.0
aF1.0
aF0.9948349013097214
aF0.9789706696181516
aF0.9319313779745434
aF0.83766832687696
aF0.6902785463936543
aF0.5058107360265633
aF0.3667220070097768
aF0.3257701531082826
aF0.3945766463752075
aF0.5168788046485888
aF0.634938203283527
aF0.7107544733444014
aF0.7651724774026932
aF0.825493451392732
aF0.8771444382955175
aF0.9204943737317838
aF0.9498247555801512
aF0.9643977125991514
aF0.9730676996864047
aF0.9769415237041136
aF0.9824755580151263
aF0.9902232060505441
aF0.9977863862755949
aF0.9998155321896329
aF1.0
aF1.0
aF1.0
aF0.9988931931377975
aF0.9933591588267847
aF0.9741745065486073
aF0.9195720346799483
aF0.8111049621840989
aF0.6389964951116031
aF0.43921785648404355
aF0.2835270245342188
aF0.2637889688249401
aF0.3440324663346246
aF0.456373362848183
aF0.5565393838775133
aF0.6255303449548054
aF0.6865891901863125
aF0.7533665375391994
aF0.8253089835823649
aF0.8957756871425936
aF0.9435528500276702
aF0.9732521674967718
aF0.987825124515772
aF0.9933591588267847
aF0.9968640472237594
aF0.9988931931377975
aF0.9992621287585316
aF1.0
aF1.0
aF1.0
aF1.0
aF0.9990776609481645
aF0.993912562257886
aF0.9723298284449363
aF0.9151448072311381
aF0.8057553956834532
aF0.6325401217487548
aF0.4231691569821066
aF0.2755949086884339
aF0.2641579044456742
aF0.3239254750046117
aF0.3993728094447519
aF0.47168419110865156
aF0.5305294226157535
aF0.586238701346615
aF0.6463752075262866
aF0.7244050913115662
aF0.8149787862018077
aF0.8970669618151632
aF0.9527762405460247
aF0.9800774764803541
aF0.9933591588267847
aF0.998155321896329
aF0.9998155321896329
aF1.0
aF1.0
aF0.9998155321896329
aF1.0
aF1.0
aF0.9994465965688988
aF0.9955727725511898
aF0.9754657812211769
aF0.92897989300867
aF0.8361925843940232
aF0.6830843017893378
aF0.5041505257332596
aF0.3897804833056632
aF0.3672754104408781
aF0.3971591957203468
aF0.43829551743220807
aF0.4733444014019554
aF0.5076554141302343
aF0.5428887659103486
aF0.5812580704667035
aF0.6406567054049068
aF0.742298468917174
aF0.8363770522043903
aF0.9164360819037078
aF0.9634753735473159
aF0.9869027854639365
aF0.9957572403615569
aF0.9998155321896329
aF1.0
aF1.0
aF1.0
aF1.0
aF1.0
aF0.9990776609481645
aF0.9966795794133924
aF0.9798930086699871
aF0.9444751890795057
aF0.8867367644346061
aF0.7806677734735289
aF0.6709094263051097
aF0.5873455082088176
aF0.5764619073971592
aF0.5818114738978049
aF0.586238701346615
aF0.580151263604501
aF0.5768308430178933
aF0.5591219332226527
aF0.559859804464121
aF0.5928795425198303
aF0.6792104777716288
aF0.7858328721638074
aF0.8830474082272644
aF0.9407858328721638
aF0.9773104593248478
aF0.9933591588267847
aF0.9994465965688988
aF1.0
aF1.0
aF1.0
aF1.0
aF1.0
aF0.9983397897066962
aF0.9920678841542151
aF0.9712230215827338
aF0.9400479616306955
aF0.9121933222652647
aF0.8736395498985428
aF0.8219885629957573
aF0.7913669064748201
aF0.7767939494558199
aF0.7692307692307693
aF0.7410071942446043
aF0.6945213060320974
aF0.6484043534403247
aF0.5995203836930456
aF0.5642870319129312
aF0.5742482936727541
aF0.6460062719055525
aF0.750599520383693
aF0.853901494189264
aF0.9210477771628851
aF0.9680870688064933
aF0.9900387382401771
aF0.9994465965688988
aF1.0
aF1.0
aF1.0
aF1.0
aF1.0
aF0.9983397897066962
aF0.9835823648773289
aF0.941154768492898
aF0.8972514296255304
aF0.88839697472791
aF0.894668880280391
aF0.892639734366353
aF0.8941154768492898
aF0.8891348459693783
aF0.876222099243682
aF0.8365615200147575
aF0.7638812027301236
aF0.6930455635491607
aF0.6092971776425014
aF0.5629957572403615
aF0.5607821435159565
aF0.6284818299206788
aF0.736395498985427
aF0.8339789706696181
aF0.914775871610404
aF0.9607083563918096
aF0.987825124515772
aF0.9994465965688988
aF1.0
aF1.0
aF1.0
aF1.0
aF1.0
aF0.9974174506548608
aF0.971591957203468
aF0.902600996126176
aF0.825493451392732
aF0.815347721822542
aF0.841726618705036
aF0.8751152923814794
aF0.8954067515218594
aF0.9064748201438849
aF0.8895037815901126
aF0.8408042796532005
aF0.7648035417819591
aF0.6740453790813503
aF0.5960154952960708
aF0.5425198302896145
aF0.5563549160671463
aF0.6334624608005903
aF0.7334440140195536
aF0.8313964213244789
aF0.9077660948164545
aF0.9605238885814426
aF0.9874561888950378
aF0.9996310643792659
aF0.9998155321896329
aF1.0
aF1.0
aF1.0
aF0.9996310643792659
aF0.9972329828444937
aF0.9642132447887843
aF0.8730861464674414
aF0.7568714259361742
aF0.7046670356022874
aF0.7223759453975281
aF0.7694152370411363
aF0.8083379450285925
aF0.8242021767201624
aF0.8155321896329091
aF0.7764250138350858
aF0.7028223574986165
aF0.6163069544364509
aF0.5432577015310828
aF0.5222283711492345
aF0.555801512636045
aF0.6493266924921601
aF0.7478325032281867
aF0.8448625714812765
aF0.9164360819037078
aF0.9651355838406198
aF0.9904076738609112
aF0.9994465965688988
aF0.9998155321896329
aF1.0
aF1.0
aF1.0
aF0.9996310643792659
aF0.9961261759822911
aF0.9699317469101641
aF0.8760376314333149
aF0.7245895591219332
aF0.6260837483859066
aF0.5795978601733998
aF0.5952776240546025
aF0.6316177826969194
aF0.6578122117690463
aF0.6620549714074894
aF0.6297731045932484
aF0.5768308430178933
aF0.5168788046485888
aF0.480723113816639
aF0.488839697472791
aF0.5585685297915514
aF0.6703560228740085
aF0.7797454344216934
aF0.8716104039845047
aF0.9311935067330751
aF0.9726987640656706
aF0.9942814978786202
aF0.9992621287585316
aF0.9998155321896329
aF1.0
aF1.0
aF1.0
aF0.9998155321896329
aF0.9970485150341265
aF0.9793396052388859
aF0.9116399188341634
aF0.7753182069728832
aF0.6175982291090205
aF0.5133739162516141
aF0.46319867183176533
aF0.4521306032097399
aF0.4626452684006641
aF0.4641210108836008
aF0.45323741007194246
aF0.43884892086330934
aF0.4139457664637521
aF0.43276148312119533
aF0.492897989300867
aF0.6150156797638812
aF0.7286478509500092
aF0.8349013097214536
aF0.9072126913853532
aF0.9568345323741008
aF0.9848736395498986
aF0.9976019184652278
aF0.9994465965688988
aF0.9998155321896329
aF1.0
aF1.0
aF1.0
aF1.0
aF0.9990776609481645
aF0.987825124515772
aF0.9518539014941892
aF0.8607268031728463
aF0.7258808337945029
aF0.5777531820697288
aF0.4578491053311197
aF0.38627559490868846
aF0.3539937280944475
aF0.3420033204205866
aF0.3444014019553588
aF0.3563918096292197
aF0.3977125991514481
aF0.4668880280391072
aF0.5855008301051466
aF0.7052204390333887
aF0.8190370780298838
aF0.8959601549529607
aF0.951300498063088
aF0.9800774764803541
aF0.9929902232060506
aF0.9985242575170633
aF0.9994465965688988
aF1.0
aF1.0
aF1.0
aF1.0
aF1.0
aF0.9994465965688988
aF0.9955727725511898
aF0.977863862755949
aF0.9332226526471131
aF0.8476295886367828
aF0.7371333702268954
aF0.6192584394023243
aF0.5178011437004243
aF0.4473344401401955
aF0.41449916989485336
aF0.4191108651540306
aF0.46116952591772736
aF0.5393838775133739
aF0.6401033019738056
aF0.7526286662977311
aF0.8492897989300867
aF0.916805017524442
aF0.957387935805202
aF0.9828444936358606
aF0.9933591588267847
aF0.9977863862755949
aF0.9990776609481645
aF0.9996310643792659
aF1.0
aF1.0
aF1.0
aF1.0
aF1.0
aF0.9998155321896329
aF0.9992621287585316
aF0.9955727725511898
aF0.9804464121010884
aF0.9494558199594171
aF0.8981737686773658
aF0.8330566316177827
aF0.7758716104039846
aF0.7236672200700978
aF0.6954436450839329
aF0.7020844862571481
aF0.7411916620549714
aF0.8046485888212507
aF0.8701346615015679
aF0.9145914038000369
aF0.9531451761667589
aF0.9754657812211769
aF0.9893008669987087
aF0.9953883047408227
aF0.997970854085962
aF0.9988931931377975
aF0.9994465965688988
aF1.0
aF1.0
aF1.0
aF1.0
aF1.0
aF1.0
aF0.9998155321896329
aF0.9996310643792659
aF0.9994465965688988
aF0.997970854085962
aF0.9911455451023796
aF0.9809998155321896
aF0.9697472790997971
aF0.9583102748570375
aF0.9494558199594171
aF0.9474266740453791
aF0.9524073049252906
aF0.9621840988747463
aF0.9717764250138351
aF0.9806308799114555
aF0.985795978601734
aF0.9926212875853163
aF0.9964951116030253
aF0.9987087253274304
aF0.9987087253274304
aF0.9987087253274304
aF0.9990776609481645
aF0.9994465965688988
aF1.0
aF1.0
aF1.0
aF1.0
aF1.0
aF1.0
aF1.0
aF1.0
aF1.0
aF0.9998155321896329
aF0.9998155321896329
aF0.9994465965688988
aF0.9985242575170633
aF0.9976019184652278
aF0.9968640472237594
aF0.9964951116030253
aF0.9968640472237594
aF0.997970854085962
aF0.9976019184652278
aF0.997970854085962
aF0.9985242575170633
aF0.9988931931377975
aF0.9994465965688988
aF0.9994465965688988
aF0.9996310643792659
aF0.9998155321896329
aF1.0
aF1.0
aF1.0
aF1.0
aF1.0
aF1.0
aF1.0
aF1.0
aF1.0
aF1.0
aF1.0
aF1.0
aF1.0
aF1.0
aF1.0
aF0.9998155321896329
aF0.9998155321896329
aF0.9998155321896329
aF1.0
aF1.0
aF1.0
aF1.0
aF1.0
aF1.0
aF1.0
aF1.0
aF1.0
aF1.0
aF1.0
aF1.0
aF1.0
aF1.0
aF1.0
aaa.