(lp0
(lp1
I7
aI8
aa(lp2
F0.5170848464839881
aF0.4829151535160119
aa(lp3
(lp4
F1.0
aF1.0
aF1.0
aF1.0
aF1.0
aF1.0
aF1.0
aF1.0
aF1.0
aF1.0
aF1.0
aF1.0
aF1.0
aF1.0
aF1.0
aF1.0
aF1.0
aF1.0
aF1.0
aF1.0
aF1.0
aF1.0
aF1.0
aF1.0
aF1.0
aF1.0
aF1.0
aF1.0
aF1.0
aF1.0
aF1.0
aF1.0
aF1.0
aF1.0
aF1.0
aF1.0
aF1.0
aF1.0
aF1.0
aF1.0
aF1.0
aF1.0
aF1.0
aF1.0
aF1.0
aF1.0
aF1.0
aF1.0
aF1.0
aF1.0
aF1.0
aF1.0
aF1.0
aF1.0
aF1.0
aF1.0
aF1.0
aF1.0
aF1.0
aF1.0
aF1.0
aF1.0
aF1.0
aF1.0
aF1.0
aF1.0
aF1.0
aF1.0
aF1.0
aF1.0
aF1.0
aF1.0
aF1.0
aF1.0
aF1.0
aF1.0
aF1.0
aF1.0
aF1.0
aF1.0
aF1.0
aF1.0
aF1.0
aF1.0
aF1.0
aF1.0
aF1.0
aF1.0
aF1.0
aF1.0
aF1.0
aF1.0
aF1.0
aF1.0
aF1.0
aF1.0
aF1.0
aF1.0
aF1.0
aF1.0
aF1.0
aF1.0
aF1.0
aF1.0
aF1.0
aF1.0
aF1.0
aF1.0
aF1.0
aF1.0
aF1.0
aF1.0
aF1.0
aF1.0
aF1.0
aF0.9998403830806065
aF0.9998403830806065
aF0.9998403830806065
aF1.0
aF1.0
aF1.0
aF1.0
aF1.0
aF0.999680766161213
aF0.999680766161213
aF0.9995211492418197
aF0.9995211492418197
aF0.9998403830806065
aF0.9998403830806065
aF1.0
aF1.0
aF1.0
aF1.0
aF0.9998403830806065
aF1.0
aF1.0
aF1.0
aF1.0
aF1.0
aF1.0
aF1.0
aF1.0
aF1.0
aF0.9998403830806065
aF0.9995211492418197
aF0.9987230646448524
aF0.9971268954509178
aF0.9956903431763767
aF0.9923383878691141
aF0.9894652833200319
aF0.9897845171588189
aF0.9885075818036712
aF0.9875498802873105
aF0.9885075818036712
aF0.9886671987230646
aF0.9901037509976057
aF0.9913806863527533
aF0.994413407821229
aF0.9960095770151636
aF0.9987230646448524
aF0.9992019154030327
aF0.9995211492418197
aF0.999680766161213
aF1.0
aF1.0
aF1.0
aF1.0
aF1.0
aF1.0
aF1.0
aF0.9993615323224262
aF0.9992019154030327
aF0.9948922585794094
aF0.9867517956903432
aF0.9728651237031125
aF0.9584996009577015
aF0.9379090183559458
aF0.9195530726256983
aF0.8962490023942538
aF0.8822027134876297
aF0.8710295291300878
aF0.8708699122106943
aF0.8710295291300878
aF0.8707102952913008
aF0.8747007182761373
aF0.8873104549082202
aF0.9080606544293696
aF0.9332801276935355
aF0.9596169193934557
aF0.9746209098164406
aF0.9881883479648843
aF0.9969672785315243
aF0.9998403830806065
aF1.0
aF1.0
aF1.0
aF1.0
aF0.999680766161213
aF0.996488427773344
aF0.9880287310454908
aF0.9682362330407023
aF0.9312051077414206
aF0.8804469273743016
aF0.819632881085395
aF0.7541899441340782
aF0.6889066241021549
aF0.6282521947326417
aF0.583559457302474
aF0.5482841181165203
aF0.5276935355147646
aF0.5126895450917798
aF0.5015163607342378
aF0.497366320830008
aF0.5171588188347965
aF0.5758978451715882
aF0.659537110933759
aF0.7661612130885874
aF0.8624102154828411
aF0.9379090183559458
aF0.9735035913806863
aF0.9953711093375898
aF0.9992019154030327
aF1.0
aF1.0
aF0.9998403830806065
aF0.9979249800478851
aF0.9878691141260973
aF0.9623304070231444
aF0.9233838786911412
aF0.8512370311252992
aF0.7629688747007183
aF0.6544293695131684
aF0.5462090981644054
aF0.44437350359138067
aF0.35147645650438947
aF0.2927374301675978
aF0.250438946528332
aF0.2324022346368715
aF0.2245810055865922
aF0.2166001596169194
aF0.21276935355147647
aF0.22761372705506783
aF0.3024740622505986
aF0.42968874700718274
aF0.6023942537909018
aF0.7634477254588986
aF0.8849162011173184
aF0.955147645650439
aF0.9889864325618516
aF0.9987230646448524
aF1.0
aF1.0
aF0.9998403830806065
aF0.9969672785315243
aF0.9787709497206704
aF0.9439744612928971
aF0.8890662410215483
aF0.8027134876296887
aF0.698802873104549
aF0.5696727853152435
aF0.4493216280925778
aF0.3382282521947326
aF0.264804469273743
aF0.22314445331205107
aF0.2223463687150838
aF0.24102154828411812
aF0.24501197126895452
aF0.23447725458898644
aF0.20063846767757382
aF0.1736632083000798
aF0.21069433359936154
aF0.3343974461292897
aF0.5275339185953711
aF0.7241819632881086
aF0.8668794892258579
aF0.9545091779728652
aF0.9904229848363927
aF0.9984038308060654
aF0.9998403830806065
aF0.9998403830806065
aF0.999680766161213
aF0.9958499600957702
aF0.9798882681564246
aF0.9450917797286512
aF0.8892258579409418
aF0.8105347166799681
aF0.7133280127693535
aF0.5996807661612131
aF0.4976855546687949
aF0.42649640861931365
aF0.3877094972067039
aF0.4057462090981644
aF0.4533120510774142
aF0.4928970470869912
aF0.5158818834796488
aF0.4850758180367119
aF0.3862729449321628
aF0.26225059856344773
aF0.225219473264166
aF0.32673583399840384
aF0.5374301675977654
aF0.7350359138068635
aF0.8799680766161213
aF0.964245810055866
aF0.9942537909018356
aF0.9988826815642458
aF0.9998403830806065
aF1.0
aF0.999680766161213
aF0.996488427773344
aF0.9829209896249003
aF0.9599361532322426
aF0.9169992019154031
aF0.8579409417398244
aF0.7790901835594572
aF0.6897047086991221
aF0.610853950518755
aF0.5715881883479649
aF0.5915403032721468
aF0.6518754988028731
aF0.7268954509177973
aF0.7682362330407023
aF0.7814844373503591
aF0.7184357541899441
aF0.5388667198723065
aF0.3318435754189944
aF0.24628890662410216
aF0.3696727853152434
aF0.5755786113328013
aF0.7893056664006385
aF0.9114126097366321
aF0.9773343974461293
aF0.9969672785315243
aF0.9998403830806065
aF1.0
aF1.0
aF0.9998403830806065
aF0.9984038308060654
aF0.9910614525139665
aF0.9752593774940144
aF0.9481245011971269
aF0.9050279329608939
aF0.8515562649640862
aF0.7723862729449321
aF0.7128491620111732
aF0.7056664006384676
aF0.7554668794892259
aF0.8272944932162809
aF0.8936951316839585
aF0.9211492418196329
aF0.9024740622505986
aF0.7875498802873104
aF0.5345570630486831
aF0.3056664006384677
aF0.26193136472466083
aF0.4241021548284118
aF0.6612928970470869
aF0.8488427773343974
aF0.9452513966480447
aF0.9881883479648843
aF0.9985634477254589
aF0.9995211492418197
aF0.9998403830806065
aF1.0
aF1.0
aF0.999680766161213
aF0.9953711093375898
aF0.9867517956903432
aF0.9648842777334398
aF0.9326416600159617
aF0.8922585794094174
aF0.8347964884277733
aF0.8006384676775739
aF0.8092577813248204
aF0.8601755786113328
aF0.9272146847565842
aF0.9608938547486033
aF0.9647246608140463
aF0.9136472466081405
aF0.7328012769353551
aF0.4407023144453312
aF0.25123703112529927
aF0.29561053471668
aF0.502952913008779
aF0.7470071827613727
aF0.8992817238627294
aF0.9663208300079809
aF0.9897845171588189
aF0.996488427773344
aF0.9990422984836392
aF1.0
aF1.0
aF1.0
aF0.9998403830806065
aF0.9984038308060654
aF0.9921787709497206
aF0.9781324820430966
aF0.9522745411013568
aF0.9224261771747805
aF0.8877893056664007
aF0.8692737430167597
aF0.8869912210694334
aF0.920830007980846
aF0.9527533918595371
aF0.9647246608140463
aF0.9497206703910615
aF0.8550678371907422
aF0.5974461292897048
aF0.3101356743814844
aF0.21292897047086992
aF0.3462090981644054
aF0.592657621707901
aF0.8106943335993615
aF0.9245011971268955
aF0.9680766161213089
aF0.9859537110933759
aF0.9958499600957702
aF0.9985634477254589
aF1.0
aF1.0
aF1.0
aF1.0
aF0.9992019154030327
aF0.9960095770151636
aF0.9861133280127694
aF0.967757382282522
aF0.9450917797286512
aF0.9237031125299282
aF0.9174780526735834
aF0.9232242617717478
aF0.9356743814844374
aF0.938707102952913
aF0.9332801276935355
aF0.8922585794094174
aF0.7292897047086991
aF0.43766959297685554
aF0.23016759776536314
aF0.23335993615323225
aF0.43591380686352754
aF0.6866719872306465
aF0.8534716679968076
aF0.9310454908220271
aF0.9661612130885874
aF0.9848363926576217
aF0.994413407821229
aF0.9992019154030327
aF1.0
aF1.0
aF1.0
aF1.0
aF0.9998403830806065
aF0.9972865123703113
aF0.99122106943336
aF0.9797286512370311
aF0.9636073423782922
aF0.9524341580207502
aF0.9430167597765363
aF0.9337589784517158
aF0.9286512370311253
aF0.9197126895450918
aF0.8887470071827613
aF0.8022346368715084
aF0.5698324022346368
aF0.3088587390263368
aF0.20494812450119712
aF0.3189146049481245
aF0.5632881085395052
aF0.7696727853152434
aF0.8952913008778931
aF0.9482841181165204
aF0.9707901037509976
aF0.9862729449321628
aF0.9960095770151636
aF0.9993615323224262
aF1.0
aF1.0
aF1.0
aF1.0
aF1.0
aF0.9987230646448524
aF0.9950518754988029
aF0.9880287310454908
aF0.9803671189146049
aF0.9709497206703911
aF0.9607342378292099
aF0.9479648842777334
aF0.936632083000798
aF0.9122106943335994
aF0.8549082202713487
aF0.6897047086991221
aF0.4335195530726257
aF0.2544293695131684
aF0.2587390263367917
aF0.4601755786113328
aF0.6834796488427773
aF0.8493216280925778
aF0.9310454908220271
aF0.9664804469273743
aF0.9833998403830806
aF0.9926576217079011
aF0.9966480446927374
aF0.9993615323224262
aF0.9998403830806065
aF1.0
aF1.0
aF1.0
aF1.0
aF0.9993615323224262
aF0.9974461292897047
aF0.994732641660016
aF0.99122106943336
aF0.9854748603351955
aF0.9771747805267358
aF0.9653631284916201
aF0.94780526735834
aF0.9055067837190742
aF0.788826815642458
aF0.5650438946528332
aF0.35466879489225855
aF0.2657621707901037
aF0.37462090981644053
aF0.5901037509976057
aF0.7811652035115723
aF0.9058260175578612
aF0.9580207501995212
aF0.9806863527533919
aF0.990901835594573
aF0.9969672785315243
aF0.9987230646448524
aF1.0
aF1.0
aF1.0
aF1.0
aF1.0
aF0.9998403830806065
aF0.999680766161213
aF0.998244213886672
aF0.9977653631284916
aF0.996169193934557
aF0.9929768555466879
aF0.9870710295291301
aF0.9750997605746209
aF0.9411013567438149
aF0.8592178770949721
aF0.6897047086991221
aF0.4863527533918595
aF0.3272146847565842
aF0.34477254588986433
aF0.5086991221069433
aF0.7000798084596968
aF0.8544293695131684
aF0.9374301675977653
aF0.9741420590582601
aF0.9907422186751795
aF0.996169193934557
aF0.9988826815642458
aF0.9990422984836392
aF0.999680766161213
aF1.0
aF1.0
aF1.0
aF1.0
aF1.0
aF0.9998403830806065
aF0.999680766161213
aF0.9992019154030327
aF0.9980845969672786
aF0.994413407821229
aF0.985634477254589
aF0.9626496408619314
aF0.8997605746209099
aF0.7776536312849162
aF0.5979249800478851
aF0.42601755786113327
aF0.3580207501995212
aF0.44740622505985633
aF0.6173982442138867
aF0.7773343974461293
aF0.8938547486033519
aF0.9561053471667997
aF0.9830806065442937
aF0.9952114924181963
aF0.9976057462090981
aF0.9993615323224262
aF0.9992019154030327
aF0.999680766161213
aF1.0
aF1.0
aF1.0
aF1.0
aF1.0
aF1.0
aF0.999680766161213
aF0.9985634477254589
aF0.9948922585794094
aF0.9886671987230646
aF0.9699920191540303
aF0.9189146049481245
aF0.8293695131683958
aF0.6818834796488428
aF0.524341580207502
aF0.4244213886671987
aF0.432561851556265
aF0.5441340782122905
aF0.6906624102154828
aF0.8220271348762969
aF0.9157222665602553
aF0.9661612130885874
aF0.987390263367917
aF0.9955307262569832
aF0.998244213886672
aF0.9998403830806065
aF0.999680766161213
aF0.999680766161213
aF1.0
aF1.0
aF1.0
aF1.0
aF1.0
aF1.0
aF0.9988826815642458
aF0.9950518754988029
aF0.9894652833200319
aF0.9752593774940144
aF0.9340782122905028
aF0.8636871508379889
aF0.7486033519553073
aF0.614046288906624
aF0.5021548284118117
aF0.4667198723064645
aF0.5112529928172386
aF0.6175578611332802
aF0.7428571428571429
aF0.8512370311252992
aF0.9291300877893056
aF0.9693535514764565
aF0.9881883479648843
aF0.9960095770151636
aF0.9984038308060654
aF1.0
aF0.999680766161213
aF0.999680766161213
aF1.0
aF1.0
aF1.0
aF1.0
aF1.0
aF1.0
aF0.9966480446927374
aF0.9913806863527533
aF0.9805267358339984
aF0.9484437350359138
aF0.8933758978451716
aF0.8027134876296887
aF0.691779728651237
aF0.5811652035115722
aF0.5147645650438947
aF0.5177972865123703
aF0.5763766959297686
aF0.6759776536312849
aF0.780047885075818
aF0.8695929768555467
aF0.9363128491620112
aF0.9715881883479649
aF0.9883479648842778
aF0.9958499600957702
aF0.9984038308060654
aF0.999680766161213
aF0.9995211492418197
aF0.9998403830806065
aF1.0
aF1.0
aF1.0
aF1.0
aF0.9998403830806065
aF0.9993615323224262
aF0.9956903431763767
aF0.9872306464485235
aF0.9672785315243416
aF0.9238627294493216
aF0.8588986432561851
aF0.7703112529928172
aF0.6657621707901038
aF0.5948922585794094
aF0.5599361532322427
aF0.5741420590582602
aF0.639584996009577
aF0.7237031125299281
aF0.8090981644054269
aF0.8841181165203511
aF0.9436552274541101
aF0.972705506783719
aF0.9888268156424581
aF0.9960095770151636
aF0.9985634477254589
aF1.0
aF0.9998403830806065
aF1.0
aF1.0
aF1.0
aF1.0
aF1.0
aF1.0
aF0.9995211492418197
aF0.9966480446927374
aF0.9883479648842778
aF0.9653631284916201
aF0.9206703910614525
aF0.8553870710295292
aF0.7802075019952115
aF0.7080606544293695
aF0.6568236233040702
aF0.639584996009577
aF0.6641660015961692
aF0.7109337589784517
aF0.7781324820430966
aF0.8472466081404629
aF0.9048683160415004
aF0.9494014365522745
aF0.9755786113328013
aF0.9904229848363927
aF0.9950518754988029
aF0.998244213886672
aF1.0
aF0.9998403830806065
aF1.0
aF1.0
aF1.0
aF1.0
aF1.0
aF1.0
aF1.0
aF0.999680766161213
aF0.9950518754988029
aF0.9811652035115722
aF0.9565841979249801
aF0.9176376695929769
aF0.8812450119712689
aF0.8400638467677574
aF0.8092577813248204
aF0.8012769353551477
aF0.8092577813248204
aF0.834317637669593
aF0.8726256983240224
aF0.9093375897845172
aF0.9403032721468476
aF0.9672785315243416
aF0.9841979249800479
aF0.994413407821229
aF0.9976057462090981
aF0.9988826815642458
aF0.9998403830806065
aF1.0
aF1.0
aF1.0
aF1.0
aF1.0
aF1.0
aF1.0
aF1.0
aF1.0
aF0.9993615323224262
aF0.9980845969672786
aF0.9960095770151636
aF0.9952114924181963
aF0.9924980047885076
aF0.9853152434158021
aF0.9827613727055068
aF0.97829209896249
aF0.9762170790103751
aF0.9703112529928173
aF0.9749401436552274
aF0.9794094173982442
aF0.9857940941739824
aF0.9928172386272945
aF0.9974461292897047
aF0.9988826815642458
aF0.999680766161213
aF0.9995211492418197
aF1.0
aF1.0
aF1.0
aF1.0
aF1.0
aa(lp5
F1.0
aF1.0
aF1.0
aF1.0
aF1.0
aF1.0
aF1.0
aF1.0
aF1.0
aF1.0
aF1.0
aF1.0
aF1.0
aF1.0
aF1.0
aF1.0
aF1.0
aF1.0
aF1.0
aF1.0
aF1.0
aF1.0
aF1.0
aF1.0
aF1.0
aF1.0
aF1.0
aF1.0
aF1.0
aF1.0
aF1.0
aF1.0
aF1.0
aF1.0
aF1.0
aF1.0
aF1.0
aF1.0
aF1.0
aF1.0
aF1.0
aF1.0
aF1.0
aF1.0
aF1.0
aF1.0
aF1.0
aF1.0
aF1.0
aF1.0
aF1.0
aF1.0
aF1.0
aF1.0
aF1.0
aF1.0
aF1.0
aF1.0
aF1.0
aF1.0
aF1.0
aF1.0
aF1.0
aF1.0
aF1.0
aF1.0
aF1.0
aF1.0
aF1.0
aF1.0
aF1.0
aF1.0
aF1.0
aF1.0
aF0.9998290890446078
aF1.0
aF1.0
aF1.0
aF1.0
aF1.0
aF1.0
aF1.0
aF1.0
aF1.0
aF1.0
aF1.0
aF1.0
aF1.0
aF1.0
aF1.0
aF1.0
aF1.0
aF1.0
aF0.9998290890446078
aF0.9996581780892155
aF0.9993163561784311
aF0.9989745342676466
aF0.9986327123568621
aF0.9976072466245086
aF0.9967526918475474
aF0.9958981370705863
aF0.9962399589813707
aF0.9967526918475474
aF0.9981199794906853
aF0.9986327123568621
aF0.9982908904460776
aF0.9988036233122544
aF0.9994872671338233
aF0.9998290890446078
aF1.0
aF1.0
aF1.0
aF1.0
aF1.0
aF1.0
aF1.0
aF1.0
aF1.0
aF0.9998290890446078
aF0.9989745342676466
aF0.9965817808921552
aF0.9923090070073491
aF0.9820543496838148
aF0.9685523842078277
aF0.9413775423004614
aF0.9025807554264228
aF0.8687403862587592
aF0.8444710305930611
aF0.8431037429499231
aF0.864296701418561
aF0.8936933857460263
aF0.9242864467612374
aF0.9507776448470346
aF0.9721415142710648
aF0.987865322167151
aF0.9943599384720561
aF0.9974363356691164
aF0.9989745342676466
aF0.9994872671338233
aF1.0
aF1.0
aF1.0
aF1.0
aF1.0
aF1.0
aF0.9996581780892155
aF0.9984618014014698
aF0.991454452230388
aF0.9777815757990087
aF0.9511194667578192
aF0.9013843787386772
aF0.8166125448641258
aF0.6985130746880875
aF0.5732353443855751
aF0.4710305930610152
aF0.39958981370705865
aF0.38625875918646385
aF0.4344556486070757
aF0.5332421808237908
aF0.6508289181336524
aF0.7742266279268502
aF0.8641257904631687
aF0.9259955563151598
aF0.9608613912151769
aF0.984447103059306
aF0.9943599384720561
aF0.9988036233122544
aF1.0
aF1.0
aF1.0
aF1.0
aF1.0
aF0.9998290890446078
aF0.9972654247137241
aF0.989403520765681
aF0.968039651341651
aF0.9222355152965305
aF0.8513074688087506
aF0.7427790121346778
aF0.5925482823448983
aF0.4460775935737481
aF0.3216544180481969
aF0.24371902238933515
aF0.20902409844471032
aF0.21586053666039992
aF0.2580755426422834
aF0.34660741753546404
aF0.46744146299777817
aF0.6087848231071612
aF0.740728080669971
aF0.8449837634592378
aF0.9155699880362331
aF0.9613741240813536
aF0.9853016578362673
aF0.9967526918475474
aF0.9996581780892155
aF1.0
aF1.0
aF1.0
aF1.0
aF0.9977781575799008
aF0.9902580755426423
aF0.9704324047171423
aF0.9225773372073149
aF0.8453255853700222
aF0.7337207314988891
aF0.5884464194154845
aF0.4377029567595283
aF0.3305417877285934
aF0.2809776106648436
aF0.2982396171594599
aF0.3151598017432917
aF0.3360109383011451
aF0.34165099982908903
aF0.35139292428644675
aF0.4206118612203042
aF0.5252093659203555
aF0.661938130234148
aF0.7841394633396
aF0.8731840710989575
aF0.9371047684156555
aF0.981541616817638
aF0.9958981370705863
aF0.9996581780892155
aF1.0
aF1.0
aF1.0
aF0.9988036233122544
aF0.9945308494274483
aF0.9801743291745001
aF0.9456503161852675
aF0.8769441121175867
aF0.7820885318748931
aF0.6371560417022731
aF0.48333618184925653
aF0.3881387796957785
aF0.3500256366433088
aF0.40608443001196376
aF0.5050418731840711
aF0.5652025294821398
aF0.5674243719022389
aF0.5245257220987866
aF0.4520594770124765
aF0.42881558707913175
aF0.5062382498718168
aF0.6231413433601094
aF0.7422662792685011
aF0.8458383182361989
aF0.9253119124935908
aF0.973679712869595
aF0.9948726713382328
aF0.9994872671338233
aF1.0
aF1.0
aF1.0
aF0.9988036233122544
aF0.9917962741411724
aF0.9740215347803794
aF0.9285592206460435
aF0.8547256879165954
aF0.7320116219449667
aF0.5853700222184242
aF0.4513758331909075
aF0.39753888224235173
aF0.44812852503845496
aF0.5720389676978295
aF0.6921893693385746
aF0.7480772517518373
aF0.6940693898478892
aF0.5947701247649975
aF0.47461972312425227
aF0.4264228337036404
aF0.49136899675269186
aF0.6163049051444197
aF0.7436335669116391
aF0.8475474277901214
aF0.9277046658690822
aF0.9770979319774398
aF0.9943599384720561
aF0.9993163561784311
aF1.0
aF1.0
aF1.0
aF0.9989745342676466
aF0.9902580755426423
aF0.9700905828063578
aF0.9229191591180995
aF0.839514612886686
aF0.7161169030934883
aF0.5766535634934199
aF0.45171765510169204
aF0.4192445735771663
aF0.5019654759870108
aF0.6463852332934541
aF0.7600410186292942
aF0.7641428815587079
aF0.6668945479405229
aF0.5277730302512391
aF0.41650999829089047
aF0.4137754230046146
aF0.5193983934370193
aF0.6610835754571868
aF0.7904631686891129
aF0.8848060160656298
aF0.9478721586053666
aF0.9811997949068535
aF0.9965817808921552
aF0.9993163561784311
aF1.0
aF1.0
aF1.0
aF0.9994872671338233
aF0.9923090070073491
aF0.9716287814048881
aF0.9282173987352589
aF0.853700222184242
aF0.735771662963596
aF0.5857118441292087
aF0.4633396000683644
aF0.4189027516663818
aF0.4713724149717997
aF0.5956246795419586
aF0.671850965646898
aF0.643479747051786
aF0.5139292428644676
aF0.3889933344727397
aF0.3599384720560588
aF0.45103401128012305
aF0.6051956930439241
aF0.7547427790121347
aF0.8615621261322851
aF0.9323192616646727
aF0.9671850965646898
aF0.9888907878995044
aF0.9977781575799008
aF0.9998290890446078
aF1.0
aF1.0
aF1.0
aF0.9993163561784311
aF0.9941890275166638
aF0.9800034182191079
aF0.9449666723636985
aF0.8846351051102376
aF0.7784994018116561
aF0.6439924799179627
aF0.5036745855409331
aF0.4021534780379422
aF0.38147325243548114
aF0.44043753204580416
aF0.4850452914031789
aF0.41650999829089047
aF0.3149888907878995
aF0.3031960348658349
aF0.4086480943428474
aF0.570329858143907
aF0.7316698000341821
aF0.8530165783626731
aF0.926850111092121
aF0.9656468979661597
aF0.9846180140146984
aF0.9948726713382328
aF0.9984618014014698
aF0.9998290890446078
aF1.0
aF1.0
aF1.0
aF0.9996581780892155
aF0.9972654247137241
aF0.989403520765681
aF0.9663305417877286
aF0.9222355152965305
aF0.8412237224406084
aF0.7198769441121176
aF0.5732353443855751
aF0.4064262519227482
aF0.2843958297726884
aF0.25465732353443854
aF0.2597846521962058
aF0.20697316698000343
aF0.2179114681251068
aF0.35088019142027005
aF0.5452059477012476
aF0.7238078960861392
aF0.8497692702102205
aF0.9249700905828063
aF0.9625705007690993
aF0.9818834387284225
aF0.9928217398735258
aF0.9972654247137241
aF0.9993163561784311
aF1.0
aF1.0
aF1.0
aF1.0
aF1.0
aF0.9993163561784311
aF0.9928217398735258
aF0.981541616817638
aF0.9533413091779183
aF0.8952315843445565
aF0.7964450521278414
aF0.6340796445052128
aF0.42044095026491196
aF0.2320970774226628
aF0.13912151768928388
aF0.12220133310545206
aF0.1362160314476158
aF0.2594428302854213
aF0.48213980516151084
aF0.6949239446248504
aF0.8325072637156041
aF0.9111263031960348
aF0.9518031105793882
aF0.9750470005127329
aF0.9885489659887199
aF0.9955563151598017
aF0.9986327123568621
aF0.9998290890446078
aF1.0
aF1.0
aF1.0
aF1.0
aF1.0
aF0.9996581780892155
aF0.9967526918475474
aF0.9875235002563665
aF0.9646214322338061
aF0.9140317894377029
aF0.8114852162023586
aF0.6429670141856093
aF0.41086993676294653
aF0.1980857972996069
aF0.1215176892838831
aF0.1223722440608443
aF0.19774397538882243
aF0.36831310887027857
aF0.5899846180140147
aF0.7626046829601777
aF0.8654930781063066
aF0.9239446248504529
aF0.9586395487950777
aF0.9762433772004786
aF0.9882071440779354
aF0.9962399589813707
aF0.9989745342676466
aF1.0
aF1.0
aF1.0
aF1.0
aF1.0
aF0.9998290890446078
aF0.9996581780892155
aF0.9960690480259785
aF0.9832507263715604
aF0.9512903777132115
aF0.8844641941548453
aF0.7576482652538028
aF0.5634934199282174
aF0.34592377371389504
aF0.2076568108015724
aF0.20389676978294308
aF0.25722098786532216
aF0.32370534951290375
aF0.4529140317894377
aF0.6185267475645189
aF0.7581609981199795
aF0.848743804477867
aF0.9075371731327978
aF0.9502649119808579
aF0.9716287814048881
aF0.9851307468808751
aF0.9943599384720561
aF0.9991454452230388
aF1.0
aF1.0
aF1.0
aF1.0
aF1.0
aF1.0
aF0.9988036233122544
aF0.991454452230388
aF0.9692360280293967
aF0.912664501794565
aF0.8099470176038284
aF0.636301486925312
aF0.44864125790463166
aF0.30934882925995555
aF0.286959494103572
aF0.37737138950606736
aF0.4264228337036404
aF0.4503503674585541
aF0.5002563664330884
aF0.6103230217056913
aF0.7243206289523159
aF0.8215689625705007
aF0.8890787899504359
aF0.9348829259955563
aF0.963083233635276
aF0.9805161510852846
aF0.9928217398735258
aF0.9996581780892155
aF1.0
aF1.0
aF1.0
aF1.0
aF1.0
aF1.0
aF0.9976072466245086
aF0.9813707058622457
aF0.9444539394975218
aF0.8598530165783627
aF0.7162878140488805
aF0.5296530507605538
aF0.3826696291232268
aF0.3503674585540933
aF0.43924115535805847
aF0.5542642283370364
aF0.571013501965476
aF0.5315330712698684
aF0.5294821398051615
aF0.5988719876944112
aF0.6927021022047514
aF0.7949068535293112
aF0.8694240300803282
aF0.9251410015381986
aF0.9555631515980174
aF0.9777815757990087
aF0.9936762946504871
aF0.9996581780892155
aF1.0
aF1.0
aF1.0
aF1.0
aF1.0
aF0.9998290890446078
aF0.9953854042044095
aF0.968039651341651
aF0.9123226798837806
aF0.7921722782430354
aF0.6291232267988378
aF0.46778328490856264
aF0.39292428644676125
aF0.4592377371389506
aF0.5778499401811656
aF0.6699709451375834
aF0.6402324388993335
aF0.5634934199282174
aF0.5334130917791831
aF0.5860536660399932
aF0.669800034182191
aF0.7728593402837122
aF0.8608784823107161
aF0.9155699880362331
aF0.9518031105793882
aF0.9769270210220475
aF0.9955563151598017
aF1.0
aF1.0
aF1.0
aF1.0
aF1.0
aF1.0
aF0.9996581780892155
aF0.9929926508289182
aF0.95881045975047
aF0.8798495983592548
aF0.7438044778670313
aF0.5927191933002905
aF0.4592377371389506
aF0.4230046145957956
aF0.5156383524183901
aF0.6142539736797129
aF0.6532216715091438
aF0.6053666039993164
aF0.5289694069389848
aF0.5147837976414288
aF0.5641770637497864
aF0.6573235344385575
aF0.7648265253802768
aF0.8550675098273799
aF0.9162536318578021
aF0.958126815928901
aF0.9827379935053837
aF0.9969236028029397
aF0.9998290890446078
aF1.0
aF1.0
aF1.0
aF1.0
aF1.0
aF0.9998290890446078
aF0.9940181165612716
aF0.953170398222526
aF0.8634421466415997
aF0.734404375320458
aF0.5846863783968552
aF0.4629977781575799
aF0.4033498547256879
aF0.43257562809776107
aF0.4723978807041531
aF0.4819688942061186
aF0.4529140317894377
aF0.4308665185438387
aF0.4645359767561101
aF0.551187831139976
aF0.6615963083233636
aF0.7783284908562639
aF0.8690822081695436
aF0.9352247479063408
aF0.9692360280293967
aF0.9899162536318578
aF0.9984618014014698
aF0.9998290890446078
aF1.0
aF1.0
aF1.0
aF1.0
aF1.0
aF0.9996581780892155
aF0.9958981370705863
aF0.9635959665014527
aF0.8810459750470006
aF0.7632883267817467
aF0.6198940352076568
aF0.47667065458895913
aF0.35019654759870106
aF0.28114852162023585
aF0.24713724149717997
aF0.25499914544522306
aF0.2797812339770979
aF0.34113826696291233
aF0.4506921893693386
aF0.5840027345752863
aF0.7125277730302513
aF0.8349000170910955
aF0.9099299265082892
aF0.9572722611519399
aF0.9813707058622457
aF0.9958981370705863
aF0.9993163561784311
aF0.9998290890446078
aF1.0
aF1.0
aF1.0
aF1.0
aF1.0
aF0.9998290890446078
aF0.9982908904460776
aF0.981541616817638
aF0.9273628439582977
aF0.8374636814219791
aF0.7062040676807383
aF0.5624679541958639
aF0.4219791488634421
aF0.29379593231926165
aF0.21876602290206804
aF0.21962057767902923
aF0.29926508289181336
aF0.41873184071098957
aF0.5612715775081183
aF0.7041531362160315
aF0.8272090240984447
aF0.9044607759357375
aF0.9559049735088019
aF0.9798325072637156
aF0.9928217398735258
aF0.9979490685352931
aF0.9996581780892155
aF1.0
aF1.0
aF1.0
aF1.0
aF1.0
aF1.0
aF1.0
aF0.9998290890446078
aF0.996410869936763
aF0.9762433772004786
aF0.9350538369509486
aF0.8632712356862074
aF0.7742266279268502
aF0.6771492052640574
aF0.5956246795419586
aF0.5469150572551701
aF0.5571697145787045
aF0.611519398393437
aF0.7082549991454452
aF0.8025978465219621
aF0.8825841736455307
aF0.9386429670141856
aF0.968039651341651
aF0.9842761921039138
aF0.995043582293625
aF0.9974363356691164
aF0.9994872671338233
aF1.0
aF1.0
aF1.0
aF1.0
aF1.0
aF1.0
aF1.0
aF1.0
aF1.0
aF1.0
aF0.9979490685352931
aF0.9938472056058794
aF0.9888907878995044
aF0.9789779524867545
aF0.9695778499401811
aF0.9627414117244916
aF0.960177747393608
aF0.9569304392411554
aF0.959494103572039
aF0.967356007520082
aF0.9794906853529312
aF0.9873525893009741
aF0.9931635617843104
aF0.9960690480259785
aF0.9982908904460776
aF0.9998290890446078
aF1.0
aF0.9998290890446078
aF1.0
aF1.0
aF1.0
aF1.0
aF1.0
aF1.0
aF1.0
aF1.0
aF1.0
aF1.0
aF1.0
aF0.9998290890446078
aF0.9996581780892155
aF0.9996581780892155
aF0.9994872671338233
aF0.9993163561784311
aF0.9991454452230388
aF0.9993163561784311
aF0.9994872671338233
aF1.0
aF1.0
aF0.9998290890446078
aF0.9998290890446078
aF1.0
aF1.0
aF1.0
aF1.0
aF1.0
aF1.0
aF1.0
aF1.0
aF1.0
aF1.0
aF1.0
aF1.0
aF1.0
aF1.0
aF1.0
aF1.0
aF1.0
aF1.0
aF1.0
aF1.0
aF1.0
aF1.0
aF1.0
aF1.0
aF1.0
aF1.0
aF1.0
aF1.0
aF1.0
aF1.0
aF1.0
aF1.0
aF1.0
aF1.0
aF1.0
aF1.0
aF1.0
aaa.