(lp0
(lp1
I0
aI1
aI2
aI3
aI4
aI5
aI6
aI7
aI8
aI9
aa(lp2
F0.09871666666666666
aF0.11236666666666667
aF0.0993
aF0.10218333333333333
aF0.09736666666666667
aF0.09035
aF0.09863333333333334
aF0.10441666666666667
aF0.09751666666666667
aF0.09915
aa(lp3
(lp4
F1.0
aF1.0
aF1.0
aF1.0
aF1.0
aF1.0
aF1.0
aF1.0
aF1.0
aF1.0
aF1.0
aF1.0
aF1.0
aF1.0
aF1.0
aF1.0
aF1.0
aF1.0
aF1.0
aF1.0
aF1.0
aF1.0
aF1.0
aF1.0
aF1.0
aF1.0
aF1.0
aF1.0
aF1.0
aF1.0
aF1.0
aF1.0
aF1.0
aF1.0
aF1.0
aF1.0
aF1.0
aF1.0
aF1.0
aF0.9998311666385278
aF0.9998311666385278
aF0.9998311666385278
aF1.0
aF1.0
aF0.9998311666385278
aF0.9998311666385278
aF1.0
aF1.0
aF1.0
aF1.0
aF1.0
aF1.0
aF1.0
aF1.0
aF1.0
aF1.0
aF1.0
aF1.0
aF1.0
aF1.0
aF1.0
aF1.0
aF1.0
aF0.9998311666385278
aF1.0
aF1.0
aF1.0
aF1.0
aF0.9998311666385278
aF0.9996623332770556
aF0.9998311666385278
aF0.9998311666385278
aF0.9998311666385278
aF1.0
aF1.0
aF0.9998311666385278
aF1.0
aF1.0
aF1.0
aF1.0
aF1.0
aF1.0
aF1.0
aF1.0
aF1.0
aF1.0
aF1.0
aF1.0
aF1.0
aF0.9996623332770556
aF0.9998311666385278
aF0.9998311666385278
aF0.9994934999155833
aF0.9991558331926389
aF0.9979739996623332
aF0.9940908323484721
aF0.9905453317575553
aF0.9856491642748607
aF0.9832854972142495
aF0.979908829984805
aF0.9788958298159717
aF0.9831166638527773
aF0.9876751646125275
aF0.9900388316731387
aF0.9927401654566942
aF0.9959479993246666
aF0.9984804997467499
aF0.9994934999155833
aF0.9998311666385278
aF1.0
aF1.0
aF1.0
aF1.0
aF1.0
aF1.0
aF1.0
aF0.9998311666385278
aF0.9998311666385278
aF0.9993246665541111
aF0.9979739996623332
aF0.9940908323484721
aF0.9844673307445552
aF0.9692723282120547
aF0.9427654904609151
aF0.888401148066858
aF0.8232314705385784
aF0.7668411278068546
aF0.7166976194496032
aF0.7004896167482695
aF0.7269964544994091
aF0.7801789633631606
aF0.8419719736619956
aF0.9086611514435252
aF0.9527266587877765
aF0.982103663683944
aF0.996285666047611
aF0.9994934999155833
aF0.9998311666385278
aF1.0
aF1.0
aF1.0
aF1.0
aF1.0
aF0.9998311666385278
aF0.9998311666385278
aF0.9998311666385278
aF0.9969609994934999
aF0.9922336653722775
aF0.9807529967921661
aF0.9518824919804153
aF0.9000506500084416
aF0.810231301705217
aF0.7011649501941584
aF0.5703190950531825
aF0.45939557656592944
aF0.3874725645787608
aF0.35725139287523217
aF0.39675839945973324
aF0.491811581968597
aF0.6208002701333784
aF0.756711126118521
aF0.8629073104845517
aF0.9437784906297484
aF0.9863244977207496
aF0.9983116663852777
aF0.9998311666385278
aF1.0
aF1.0
aF1.0
aF1.0
aF1.0
aF1.0
aF0.9994934999155833
aF0.9967921661320277
aF0.9929089988181665
aF0.9800776633462772
aF0.9473239912206652
aF0.884686814114469
aF0.7808542968090495
aF0.6466317744386291
aF0.5037987506331251
aF0.3661995610332602
aF0.2740165456694243
aF0.2145872024312004
aF0.2007428667904778
aF0.2164443694073949
aF0.27992571332095223
aF0.4141482356913726
aF0.568461928076988
aF0.7315549552591593
aF0.8703359783893297
aF0.9589734931622489
aF0.9952726658787776
aF0.9998311666385278
aF1.0
aF1.0
aF1.0
aF1.0
aF1.0
aF1.0
aF0.9989869998311667
aF0.9952726658787776
aF0.9848049974674996
aF0.9549214924869154
aF0.8914401485733581
aF0.7795036299172716
aF0.6371771061961844
aF0.48488941414823566
aF0.3577578929596488
aF0.27570487928414655
aF0.23315887219314538
aF0.21695086949181158
aF0.21188586864764478
aF0.19466486577747763
aF0.21053520175586696
aF0.2778997129832855
aF0.4163430693905116
aF0.594462265743711
aF0.770893128482188
aF0.910687151781192
aF0.985142664190444
aF0.9991558331926389
aF1.0
aF0.9998311666385278
aF1.0
aF1.0
aF1.0
aF1.0
aF0.9991558331926389
aF0.992571332095222
aF0.9706229951038325
aF0.9101806516967753
aF0.8083741347290224
aF0.6581124430187405
aF0.4973830828971805
aF0.37143339523889923
aF0.28786088131014687
aF0.276042546007091
aF0.2991727165287861
aF0.33597838932973156
aF0.35167989194664867
aF0.3337835556305926
aF0.2860037143339524
aF0.264899544149924
aF0.32331588721931454
aF0.4700320783386797
aF0.6640216106702684
aF0.8507513084585514
aF0.9689346614891102
aF0.9993246665541111
aF1.0
aF1.0
aF1.0
aF1.0
aF1.0
aF0.9998311666385278
aF0.9981428330238055
aF0.987337497889583
aF0.9409083234847205
aF0.8385953064325511
aF0.6998142833023806
aF0.5306432551072092
aF0.3832517305419551
aF0.30271821711970287
aF0.3040688840114807
aF0.35708255951375995
aF0.4543305757217626
aF0.5272665878777646
aF0.5671112611852102
aF0.5434745905790984
aF0.45146040857673475
aF0.3398615566435928
aF0.305081884180314
aF0.38358939726489955
aF0.5649164274860713
aF0.7806854634475773
aF0.9496876582812763
aF0.9994934999155833
aF1.0
aF1.0
aF1.0
aF1.0
aF0.9998311666385278
aF0.9998311666385278
aF0.9967921661320277
aF0.9694411615735269
aF0.8894141482356914
aF0.7568799594799932
aF0.5853452642242107
aF0.41921323653553944
aF0.31656255276042544
aF0.30086105014350834
aF0.3795373965895661
aF0.5078507513084586
aF0.627215937869323
aF0.7226067871011311
aF0.765659294276549
aF0.7302042883673814
aF0.6135404355900727
aF0.4497720749620125
aF0.3228093871348979
aF0.3383420563903427
aF0.48488941414823566
aF0.7124767854127976
aF0.9247003207833868
aF0.9988181664696945
aF1.0
aF1.0
aF1.0
aF1.0
aF1.0
aF0.9998311666385278
aF0.9937531656255276
aF0.9417524902920817
aF0.8269458044909674
aF0.651021441836907
aF0.4712139118689853
aF0.33344588890764815
aF0.30018571669761945
aF0.3726152287692048
aF0.523045753840959
aF0.670437278406213
aF0.7892959648826608
aF0.8652709775451629
aF0.8865439810906636
aF0.8424784737464123
aF0.7273341212223535
aF0.5338510889751815
aF0.3640047273341212
aF0.3150430525071754
aF0.435252405875401
aF0.6545669424278238
aF0.8978558163093027
aF0.997805166300861
aF0.9998311666385278
aF1.0
aF1.0
aF1.0
aF1.0
aF0.9998311666385278
aF0.9890258315043052
aF0.9044403174067196
aF0.741853790308965
aF0.5422927570487929
aF0.3797062299510383
aF0.29647138274523044
aF0.343744723957454
aF0.4923180820530137
aF0.6736451122741853
aF0.8141144690190781
aF0.9010636501772751
aF0.9382069897011649
aF0.9400641566773594
aF0.8954921492486916
aF0.7793347965557994
aF0.5861894310315718
aF0.3972648995441499
aF0.3185885530980922
aF0.4185379030896505
aF0.6268782711463785
aF0.8726996454499409
aF0.9964544994090833
aF0.9998311666385278
aF1.0
aF1.0
aF1.0
aF0.9998311666385278
aF0.9996623332770556
aF0.9782204963700827
aF0.8441668073611346
aF0.6508526084754347
aF0.44149924024987336
aF0.31571838595306434
aF0.30710788451798077
aF0.42799257133209523
aF0.6262029377004896
aF0.8087118014519669
aF0.9162586527097755
aF0.9601553266925544
aF0.9714671619111936
aF0.9660644943440824
aF0.9138949856491643
aF0.7891271315211886
aF0.6025662670943779
aF0.40587540097923347
aF0.33023805503967585
aF0.4210704035117339
aF0.619787269964545
aF0.8637514772919129
aF0.994766165794361
aF1.0
aF1.0
aF1.0
aF1.0
aF1.0
aF0.9998311666385278
aF0.964207327367888
aF0.7808542968090495
aF0.5645787607631267
aF0.36468006078001014
aF0.2892115482019247
aF0.3506668917778153
aF0.5390849231808206
aF0.7509707918284653
aF0.9000506500084416
aF0.9596488266081378
aF0.9788958298159717
aF0.9824413304068884
aF0.9702853283808881
aF0.9029208171534695
aF0.7658281276380213
aF0.5740334290055715
aF0.3974337329056222
aF0.33783555630592604
aF0.4423434070572345
aF0.6408914401485734
aF0.8630761438460239
aF0.9939219989869998
aF1.0
aF1.0
aF1.0
aF1.0
aF1.0
aF0.9998311666385278
aF0.9415836569306095
aF0.7126456187742698
aF0.48708424784737464
aF0.3187573864595644
aF0.2898868816478136
aF0.4252912375485396
aF0.6429174404862401
aF0.8385953064325511
aF0.9441161573526929
aF0.9800776633462772
aF0.9869998311666385
aF0.9810906635151105
aF0.9496876582812763
aF0.8551409758568294
aF0.7006584501097417
aF0.5125780854296809
aF0.3719398953233159
aF0.365355394225899
aF0.48505824750970794
aF0.6825932804322135
aF0.8824919804153301
aF0.9945973324328887
aF1.0
aF1.0
aF1.0
aF1.0
aF1.0
aF0.9996623332770556
aF0.9165963194327199
aF0.6570994428499072
aF0.4347459057909843
aF0.29123754853959144
aF0.31267938544656426
aF0.4924869154144859
aF0.7173729528954922
aF0.8900894816815803
aF0.9628566604761101
aF0.9839608306601384
aF0.9812594968765828
aF0.9611683268613878
aF0.897349316224886
aF0.7686982947830492
aF0.5961505993584332
aF0.4340705723450954
aF0.35336822556137093
aF0.40266756711126117
aF0.5566435927739322
aF0.7430356238392707
aF0.9142326523721087
aF0.996285666047611
aF1.0
aF1.0
aF1.0
aF1.0
aF1.0
aF0.9989869998311667
aF0.8911024818504136
aF0.6202937700489617
aF0.41060273510045586
aF0.28127638021273005
aF0.33479655579942597
aF0.5243964207327367
aF0.7528279588046598
aF0.8988688164781361
aF0.957622826270471
aF0.9664021610670268
aF0.9490123248353874
aF0.893634982272497
aF0.7876076312679385
aF0.6297484382914064
aF0.47070741178456865
aF0.3641735606955934
aF0.3552253925375654
aF0.4735775789295965
aF0.6400472733412123
aF0.8193483032247172
aF0.9458044909674151
aF0.9976363329393888
aF1.0
aF0.9998311666385278
aF1.0
aF1.0
aF1.0
aF0.9986493331082222
aF0.8814789802464967
aF0.6289042714840453
aF0.41009623501603915
aF0.28228938038156337
aF0.3239912206652034
aF0.509707918284653
aF0.7148404524734088
aF0.8546344757724126
aF0.9054533175755529
aF0.8985311497551917
aF0.8478811413135235
aF0.7494512915752153
aF0.6159041026506837
aF0.4742529123754854
aF0.3629917271652879
aF0.33665372277562045
aF0.4232652372108729
aF0.5753840958973493
aF0.7389836231639372
aF0.8895829815971636
aF0.9721424953570825
aF0.9991558331926389
aF1.0
aF1.0
aF1.0
aF1.0
aF1.0
aF0.997805166300861
aF0.8943103157183859
aF0.6641904440317407
aF0.44386290731048456
aF0.2917440486240081
aF0.2898868816478136
aF0.41127806854634474
aF0.5831504305250718
aF0.7139962856660476
aF0.755191625865271
aF0.7298666216444369
aF0.654735775789296
aF0.5497214249535708
aF0.4303562383927064
aF0.33665372277562045
aF0.31841971973662
aF0.3918622319770387
aF0.5346952557825426
aF0.6935674489279081
aF0.8402836400472733
aF0.944960324160054
aF0.9903764983960831
aF0.9996623332770556
aF1.0
aF1.0
aF1.0
aF0.9998311666385278
aF1.0
aF0.9984804997467499
aF0.9184534864089144
aF0.7323991220665204
aF0.5127469187911531
aF0.3293938882323147
aF0.24750970791828467
aF0.2709775451629242
aF0.3665372277562046
aF0.4529799088299848
aF0.49265574877595814
aF0.47273341212223535
aF0.4171872361978727
aF0.3464460577410096
aF0.2937700489616748
aF0.29579604929934156
aF0.38612189768698296
aF0.5222015870335979
aF0.6760087793347965
aF0.8142833023805504
aF0.9225054870842478
aF0.9790646631774439
aF0.9969609994934999
aF1.0
aF0.9998311666385278
aF1.0
aF1.0
aF1.0
aF1.0
aF0.9986493331082222
aF0.9522201587033597
aF0.825932804322134
aF0.636164106027351
aF0.4298497383082897
aF0.27570487928414655
aF0.18993753165625527
aF0.1787945297990883
aF0.2095222015870336
aF0.2383927063987844
aF0.24632787438797907
aF0.24075637345939557
aF0.2383927063987844
aF0.287185547864258
aF0.3994597332432889
aF0.5400979233496539
aF0.6893466148911025
aF0.8196859699476616
aF0.91811581968597
aF0.9738308289718048
aF0.9935843322640554
aF0.9988181664696945
aF0.9998311666385278
aF0.9998311666385278
aF1.0
aF1.0
aF1.0
aF1.0
aF0.9993246665541111
aF0.9841296640216106
aF0.9145703190950532
aF0.7825426304237717
aF0.6118521019753503
aF0.42883673813945633
aF0.28212054702009115
aF0.19230119871686646
aF0.15887219314536552
aF0.1676515279419213
aF0.18656086442681075
aF0.24058754009792335
aF0.3356407226067871
aF0.4610839101806517
aF0.6066182677697113
aF0.7470876245146041
aF0.8517643086273847
aF0.9331419888569982
aF0.9751814958635826
aF0.9939219989869998
aF0.9983116663852777
aF0.9994934999155833
aF1.0
aF0.9998311666385278
aF1.0
aF1.0
aF1.0
aF1.0
aF1.0
aF0.9967921661320277
aF0.9772074962012494
aF0.9287523214587202
aF0.8254263042377173
aF0.6959311159885193
aF0.5620462603410434
aF0.444200574033429
aF0.3694073949012325
aF0.35657605942934323
aF0.40807023467837245
aF0.5036299172716528
aF0.6201249366874895
aF0.7356069559344927
aF0.8387641397940233
aF0.9164274860712477
aF0.9621813270302212
aF0.9878439979739997
aF0.996285666047611
aF0.9988181664696945
aF0.9993246665541111
aF0.9998311666385278
aF1.0
aF1.0
aF1.0
aF1.0
aF1.0
aF1.0
aF1.0
aF0.9993246665541111
aF0.9979739996623332
aF0.991051831841972
aF0.976194496032416
aF0.9469863244977208
aF0.9101806516967753
aF0.8684788114131352
aF0.8394394732399122
aF0.8323484720580787
aF0.8455174742529123
aF0.8728684788114132
aF0.912881985480331
aF0.9458044909674151
aF0.9711294951882492
aF0.9875063312510552
aF0.9952726658787776
aF0.9983116663852777
aF0.9993246665541111
aF0.9996623332770556
aF0.9998311666385278
aF1.0
aF1.0
aF1.0
aF1.0
aF1.0
aF1.0
aF1.0
aF1.0
aF1.0
aF1.0
aF1.0
aF0.9998311666385278
aF0.9991558331926389
aF0.9988181664696945
aF0.997805166300861
aF0.997805166300861
aF0.9981428330238055
aF0.9983116663852777
aF0.9989869998311667
aF0.9993246665541111
aF0.9996623332770556
aF0.9998311666385278
aF1.0
aF1.0
aF1.0
aF1.0
aF1.0
aF1.0
aF1.0
aF1.0
aF1.0
aF1.0
aF1.0
aF1.0
aF1.0
aF1.0
aF1.0
aF1.0
aF1.0
aF1.0
aF1.0
aF1.0
aF1.0
aF1.0
aF1.0
aF1.0
aF1.0
aF1.0
aF1.0
aF1.0
aF1.0
aF1.0
aF1.0
aF1.0
aF1.0
aF1.0
aF1.0
aF1.0
aF1.0
aF1.0
aF1.0
aF1.0
aF1.0
aF1.0
aF1.0
aF1.0
aF1.0
aF1.0
aF1.0
aF1.0
aF1.0
aF1.0
aF1.0
aF1.0
aF1.0
aF1.0
aF1.0
aF1.0
aF1.0
aF1.0
aF1.0
aF1.0
aF1.0
aF1.0
aF1.0
aF1.0
aF1.0
aF1.0
aa(lp5
F1.0
aF1.0
aF1.0
aF1.0
aF1.0
aF1.0
aF1.0
aF1.0
aF1.0
aF1.0
aF1.0
aF1.0
aF1.0
aF1.0
aF1.0
aF1.0
aF1.0
aF1.0
aF1.0
aF1.0
aF1.0
aF1.0
aF1.0
aF1.0
aF1.0
aF1.0
aF1.0
aF1.0
aF1.0
aF1.0
aF1.0
aF1.0
aF1.0
aF1.0
aF1.0
aF1.0
aF1.0
aF1.0
aF1.0
aF1.0
aF1.0
aF1.0
aF0.9997033521210323
aF0.9997033521210323
aF1.0
aF1.0
aF1.0
aF1.0
aF1.0
aF1.0
aF1.0
aF1.0
aF1.0
aF1.0
aF1.0
aF1.0
aF1.0
aF1.0
aF1.0
aF1.0
aF1.0
aF1.0
aF1.0
aF1.0
aF1.0
aF1.0
aF1.0
aF0.9998516760605162
aF0.9998516760605162
aF0.9992583803025809
aF0.9988134084841294
aF0.9983684366656779
aF0.9989617324236132
aF0.9997033521210323
aF0.9998516760605162
aF0.9998516760605162
aF1.0
aF1.0
aF1.0
aF1.0
aF1.0
aF1.0
aF1.0
aF1.0
aF1.0
aF1.0
aF1.0
aF1.0
aF1.0
aF1.0
aF1.0
aF1.0
aF1.0
aF0.9997033521210323
aF0.9994067042420647
aF0.999110056363097
aF0.9979234648472264
aF0.9940670424206467
aF0.99110056363097
aF0.9909522396914862
aF0.9918421833283892
aF0.9942153663601305
aF0.9952536339365173
aF0.9967368733313556
aF0.998220112726194
aF0.9985167606051617
aF0.9994067042420647
aF1.0
aF1.0
aF1.0
aF1.0
aF1.0
aF1.0
aF1.0
aF0.9998516760605162
aF1.0
aF1.0
aF0.9998516760605162
aF0.9998516760605162
aF0.9998516760605162
aF0.9992583803025809
aF0.9974784930287749
aF0.9921388312073569
aF0.9768614654405221
aF0.9372589735983388
aF0.8798576090180955
aF0.8223079204983684
aF0.799614357757342
aF0.8056956392761792
aF0.8172649065559181
aF0.8445565114209433
aF0.8771877781073866
aF0.9167902699495699
aF0.9589142687629784
aF0.9817561554434886
aF0.9940670424206467
aF0.9989617324236132
aF1.0
aF1.0
aF1.0
aF1.0
aF1.0
aF1.0
aF0.9998516760605162
aF0.9998516760605162
aF0.9994067042420647
aF0.999110056363097
aF0.999110056363097
aF0.998220112726194
aF0.9951053099970335
aF0.9850192821121329
aF0.955651142094334
aF0.882082468110353
aF0.7733610204687037
aF0.6722040937407298
aF0.617027588252744
aF0.6119845743102936
aF0.6511420943340255
aF0.7035004449718184
aF0.7781073865321863
aF0.855532482942747
aF0.922871551468407
aF0.9697419163452982
aF0.9894690002966479
aF0.9971818451498072
aF1.0
aF1.0
aF1.0
aF1.0
aF1.0
aF1.0
aF0.9998516760605162
aF0.9998516760605162
aF0.9994067042420647
aF0.999110056363097
aF0.9985167606051617
aF0.9970335212103233
aF0.9942153663601305
aF0.9827944230198754
aF0.9466033817858203
aF0.8669534262830021
aF0.7310886977158113
aF0.5980421239988134
aF0.5206170275882528
aF0.5197270839513497
aF0.574458617620884
aF0.654256897063186
aF0.7570453871254821
aF0.8530109759715218
aF0.9276179175318896
aF0.9718184514980718
aF0.9908039157520023
aF0.9977751409077426
aF1.0
aF1.0
aF1.0
aF1.0
aF1.0
aF1.0
aF1.0
aF0.9998516760605162
aF0.9998516760605162
aF0.9994067042420647
aF0.9979234648472264
aF0.9971818451498072
aF0.9940670424206467
aF0.9844259863541975
aF0.9507564520913675
aF0.8638386235538416
aF0.7131415010382676
aF0.5486502521506971
aF0.4483832690596262
aF0.4535746069415604
aF0.5342628300207654
aF0.6564817561554435
aF0.7764758231978641
aF0.8825274399288046
aF0.9489765648175615
aF0.9811628596855533
aF0.9948086621180658
aF0.999110056363097
aF1.0
aF1.0
aF1.0
aF1.0
aF1.0
aF1.0
aF0.9998516760605162
aF0.9998516760605162
aF0.9997033521210323
aF0.9989617324236132
aF0.9980717887867102
aF0.9970335212103233
aF0.9939187184811629
aF0.9873924651438742
aF0.9568377336102046
aF0.8699199050726787
aF0.6948976564817562
aF0.4913972115099377
aF0.36413527143280927
aF0.39469000296647877
aF0.530109759715218
aF0.6894096707208544
aF0.8291308217146247
aF0.928211213289825
aF0.9721150993770394
aF0.9916938593889054
aF0.9973301690892911
aF0.9997033521210323
aF1.0
aF1.0
aF1.0
aF1.0
aF1.0
aF1.0
aF1.0
aF0.9998516760605162
aF0.9995550281815485
aF0.999110056363097
aF0.9977751409077426
aF0.996440225452388
aF0.9940670424206467
aF0.9878374369623257
aF0.9617324236131711
aF0.8725897359833877
aF0.6707208543458915
aF0.4182735093444082
aF0.2671314150103827
aF0.35108276475823197
aF0.5575496885197271
aF0.7436962325719371
aF0.8859388905369326
aF0.9612874517947196
aF0.9879857609018096
aF0.9967368733313556
aF0.9986650845446455
aF0.9997033521210323
aF1.0
aF1.0
aF1.0
aF1.0
aF0.9998516760605162
aF1.0
aF1.0
aF0.9998516760605162
aF0.9998516760605162
aF0.9994067042420647
aF0.9983684366656779
aF0.996440225452388
aF0.993770394541679
aF0.9869474933254228
aF0.9673687333135568
aF0.8762978344704835
aF0.6326016018985464
aF0.31326016018985464
aF0.16612281222189262
aF0.34514980717887866
aF0.6128745179471967
aF0.8234945120142391
aF0.9399288045090478
aF0.984870958172649
aF0.9968851972708395
aF0.9986650845446455
aF0.9995550281815485
aF1.0
aF0.9997033521210323
aF0.9998516760605162
aF1.0
aF1.0
aF1.0
aF1.0
aF1.0
aF0.9997033521210323
aF0.9997033521210323
aF0.9997033521210323
aF0.9986650845446455
aF0.9974784930287749
aF0.9942153663601305
aF0.9875407890833581
aF0.9712251557401365
aF0.8765944823494513
aF0.5661524770097894
aF0.17739543162266388
aF0.10530999703352122
aF0.3782260456837734
aF0.7024621773954316
aF0.8982497775140907
aF0.976119845743103
aF0.9959952536339365
aF0.9985167606051617
aF0.9994067042420647
aF0.9994067042420647
aF1.0
aF0.9997033521210323
aF0.9998516760605162
aF1.0
aF1.0
aF1.0
aF1.0
aF0.9998516760605162
aF0.9997033521210323
aF1.0
aF0.9995550281815485
aF0.9988134084841294
aF0.9976268169682587
aF0.9936220706021952
aF0.9888757045387125
aF0.9734500148323939
aF0.8671017502224859
aF0.44956986057549686
aF0.0617027588252744
aF0.08854939187184811
aF0.44363690299614356
aF0.8142984277662415
aF0.9577276772471077
aF0.9939187184811629
aF0.9985167606051617
aF0.9989617324236132
aF0.9997033521210323
aF0.9997033521210323
aF1.0
aF0.9998516760605162
aF1.0
aF0.9998516760605162
aF1.0
aF1.0
aF1.0
aF0.9998516760605162
aF0.9995550281815485
aF1.0
aF0.9997033521210323
aF0.999110056363097
aF0.9976268169682587
aF0.9951053099970335
aF0.99110056363097
aF0.9737466627113616
aF0.8270542865618511
aF0.28315040047463663
aF0.018985464253930585
aF0.09611391278552359
aF0.5614061109463068
aF0.9081874814595076
aF0.9873924651438742
aF0.9977751409077426
aF0.9992583803025809
aF0.9992583803025809
aF0.9998516760605162
aF0.9998516760605162
aF1.0
aF1.0
aF1.0
aF1.0
aF1.0
aF1.0
aF1.0
aF0.9998516760605162
aF0.9997033521210323
aF0.9998516760605162
aF1.0
aF0.9995550281815485
aF0.9971818451498072
aF0.9948086621180658
aF0.9906555918125185
aF0.9578760011865916
aF0.7199644022545238
aF0.15410857312370216
aF0.012904182735093445
aF0.14906555918125186
aF0.7083951349747849
aF0.9646989024028478
aF0.9954019578760012
aF0.9989617324236132
aF0.9995550281815485
aF0.999110056363097
aF0.9997033521210323
aF0.9998516760605162
aF0.9998516760605162
aF1.0
aF1.0
aF1.0
aF1.0
aF1.0
aF1.0
aF0.9998516760605162
aF1.0
aF1.0
aF1.0
aF0.999110056363097
aF0.9970335212103233
aF0.9954019578760012
aF0.9842776624147137
aF0.9037377632749926
aF0.574458617620884
aF0.10649658854939187
aF0.02002373183031741
aF0.2681696825867695
aF0.8194897656481757
aF0.9823494512014239
aF0.9976268169682587
aF0.9994067042420647
aF0.9997033521210323
aF0.9994067042420647
aF0.9997033521210323
aF1.0
aF1.0
aF1.0
aF1.0
aF1.0
aF1.0
aF1.0
aF0.9998516760605162
aF1.0
aF1.0
aF0.9998516760605162
aF0.9997033521210323
aF0.9992583803025809
aF0.9977751409077426
aF0.9896173242361317
aF0.9520913675467221
aF0.8053989913972115
aF0.4621773954316227
aF0.10619994067042421
aF0.06585582913082172
aF0.4304360723820825
aF0.8650252150697123
aF0.9833877187778107
aF0.9971818451498072
aF0.9988134084841294
aF0.9997033521210323
aF0.9992583803025809
aF0.9995550281815485
aF0.9998516760605162
aF0.9997033521210323
aF1.0
aF0.9998516760605162
aF1.0
aF1.0
aF0.9998516760605162
aF1.0
aF1.0
aF0.9998516760605162
aF0.9997033521210323
aF0.9995550281815485
aF0.9988134084841294
aF0.9930287748442599
aF0.9715218036191041
aF0.8896469890240285
aF0.6922278255710471
aF0.3924651438742213
aF0.1287451794719668
aF0.18065855829130822
aF0.549688519727084
aF0.8767428062889351
aF0.9786413527143281
aF0.9951053099970335
aF0.9971818451498072
aF0.9983684366656779
aF0.9988134084841294
aF0.9989617324236132
aF0.9994067042420647
aF0.9995550281815485
aF0.9998516760605162
aF0.9998516760605162
aF1.0
aF1.0
aF1.0
aF1.0
aF1.0
aF1.0
aF0.9998516760605162
aF0.999110056363097
aF0.9959952536339365
aF0.9802729160486503
aF0.9301394245031148
aF0.809403737763275
aF0.603678433699199
aF0.36680510234351826
aF0.1904479382972412
aF0.31340848412933847
aF0.6146544052210027
aF0.8684366656778404
aF0.9687036487689114
aF0.9903589439335508
aF0.9945120142390982
aF0.9959952536339365
aF0.9974784930287749
aF0.998220112726194
aF0.9989617324236132
aF0.9992583803025809
aF0.9995550281815485
aF0.9997033521210323
aF0.9997033521210323
aF1.0
aF1.0
aF1.0
aF1.0
aF1.0
aF0.9997033521210323
aF0.995550281815485
aF0.9833877187778107
aF0.9514980717887868
aF0.8702165529516463
aF0.7275289231681994
aF0.5477603085137941
aF0.37733610204687035
aF0.2873034707801839
aF0.4147137347967962
aF0.6455057846336398
aF0.8513794126371996
aF0.9571343814891724
aF0.983981014535746
aF0.9903589439335508
aF0.993770394541679
aF0.9958469296944527
aF0.9974784930287749
aF0.9986650845446455
aF0.9988134084841294
aF0.9995550281815485
aF0.9998516760605162
aF0.9998516760605162
aF1.0
aF1.0
aF1.0
aF1.0
aF0.9997033521210323
aF0.9974784930287749
aF0.9873924651438742
aF0.9648472263423317
aF0.9077425096410561
aF0.8021358647285672
aF0.660486502521507
aF0.5240284781963809
aF0.41501038267576384
aF0.37852269356274104
aF0.4826460990803916
aF0.6631563334322159
aF0.8310590329279146
aF0.940670424206467
aF0.9747849302877485
aF0.9872441412043904
aF0.9927321269652922
aF0.9956986057549688
aF0.9976268169682587
aF0.9989617324236132
aF0.9992583803025809
aF0.9997033521210323
aF0.9998516760605162
aF1.0
aF1.0
aF1.0
aF1.0
aF0.9997033521210323
aF0.998220112726194
aF0.9927321269652922
aF0.9744882824087808
aF0.940670424206467
aF0.8628003559774547
aF0.750074161969742
aF0.6290418273509344
aF0.5284781963808959
aF0.47063185998220114
aF0.4578760011865915
aF0.530109759715218
aF0.6665677840403441
aF0.8140017798872738
aF0.9262830020765351
aF0.9704835360427173
aF0.9853159299911005
aF0.9918421833283892
aF0.9959952536339365
aF0.9988134084841294
aF0.9994067042420647
aF0.9992583803025809
aF0.9997033521210323
aF0.9998516760605162
aF1.0
aF1.0
aF1.0
aF1.0
aF0.9997033521210323
aF0.9977751409077426
aF0.9866508454464551
aF0.9675170572530406
aF0.9225749035894394
aF0.839513497478493
aF0.7361317116582616
aF0.6349747849302877
aF0.570008899436369
aF0.5379709285078612
aF0.5382675763868289
aF0.5713438148917235
aF0.6837733610204687
aF0.8166716107979828
aF0.922871551468407
aF0.9713734796796203
aF0.9888757045387125
aF0.9945120142390982
aF0.9977751409077426
aF0.9995550281815485
aF0.9997033521210323
aF0.9998516760605162
aF0.9997033521210323
aF0.9998516760605162
aF1.0
aF1.0
aF1.0
aF1.0
aF1.0
aF0.9977751409077426
aF0.989320676357164
aF0.9701868881637497
aF0.9293978048056957
aF0.8635419756748739
aF0.7772174428952833
aF0.7035004449718184
aF0.6693859388905369
aF0.6523286858498962
aF0.6548501928211213
aF0.6667161079798279
aF0.745624443785227
aF0.8567190744586176
aF0.9451201423909819
aF0.983981014535746
aF0.9948086621180658
aF0.9970335212103233
aF0.999110056363097
aF0.9994067042420647
aF1.0
aF0.9998516760605162
aF0.9998516760605162
aF0.9998516760605162
aF1.0
aF1.0
aF1.0
aF1.0
aF1.0
aF0.9995550281815485
aF0.996440225452388
aF0.9916938593889054
aF0.9802729160486503
aF0.9646989024028478
aF0.9402254523880155
aF0.9200533966182142
aF0.9113022841886681
aF0.9080391575200237
aF0.9025511717591219
aF0.9019578760011866
aF0.9271729457134381
aF0.9658854939187185
aF0.9878374369623257
aF0.9965885493918718
aF0.9986650845446455
aF0.9995550281815485
aF0.9997033521210323
aF0.9998516760605162
aF0.9998516760605162
aF1.0
aF0.9998516760605162
aF1.0
aF1.0
aF1.0
aF1.0
aF1.0
aF1.0
aF1.0
aF1.0
aF0.9998516760605162
aF0.9995550281815485
aF0.999110056363097
aF0.9985167606051617
aF0.9988134084841294
aF0.9983684366656779
aF0.9970335212103233
aF0.9956986057549688
aF0.995550281815485
aF0.9988134084841294
aF0.9994067042420647
aF0.9998516760605162
aF1.0
aF1.0
aF1.0
aF1.0
aF1.0
aF1.0
aF1.0
aF1.0
aF1.0
aF1.0
aF1.0
aF1.0
aF1.0
aF1.0
aF1.0
aF1.0
aF1.0
aF1.0
aF1.0
aF1.0
aF1.0
aF1.0
aF1.0
aF1.0
aF1.0
aF0.9998516760605162
aF1.0
aF1.0
aF1.0
aF1.0
aF1.0
aF1.0
aF1.0
aF1.0
aF1.0
aF1.0
aF1.0
aF1.0
aF1.0
aF1.0
aF1.0
aF1.0
aF1.0
aF1.0
aF1.0
aF1.0
aF1.0
aF1.0
aF1.0
aF1.0
aF1.0
aF1.0
aF1.0
aF1.0
aF1.0
aF1.0
aF1.0
aF1.0
aF1.0
aF1.0
aF1.0
aF1.0
aF1.0
aF1.0
aF1.0
aF1.0
aa(lp6
F1.0
aF1.0
aF1.0
aF1.0
aF1.0
aF1.0
aF1.0
aF1.0
aF1.0
aF1.0
aF1.0
aF1.0
aF1.0
aF0.9998321584424303
aF0.9998321584424303
aF1.0
aF1.0
aF1.0
aF1.0
aF1.0
aF1.0
aF1.0
aF1.0
aF1.0
aF1.0
aF1.0
aF1.0
aF1.0
aF1.0
aF1.0
aF1.0
aF1.0
aF1.0
aF1.0
aF1.0
aF1.0
aF0.9996643168848607
aF0.9996643168848607
aF0.999496475327291
aF0.999496475327291
aF0.9998321584424303
aF0.999496475327291
aF0.9991607922121517
aF0.9993286337697214
aF0.9983215844243034
aF0.9993286337697214
aF1.0
aF1.0
aF1.0
aF1.0
aF1.0
aF1.0
aF1.0
aF1.0
aF1.0
aF1.0
aF1.0
aF1.0
aF1.0
aF1.0
aF1.0
aF1.0
aF0.9998321584424303
aF0.998992950654582
aF0.9971466935213159
aF0.9949647532729103
aF0.9914400805639476
aF0.9887546156428332
aF0.9852299429338705
aF0.9833836858006042
aF0.9810339039946291
aF0.9812017455521987
aF0.9865726753944276
aF0.9909365558912386
aF0.996139644175898
aF0.9981537428667338
aF0.9993286337697214
aF0.9998321584424303
aF1.0
aF0.9998321584424303
aF0.9998321584424303
aF0.9998321584424303
aF1.0
aF1.0
aF1.0
aF1.0
aF1.0
aF1.0
aF1.0
aF0.9988251090970124
aF0.9958039610607586
aF0.9874118831822759
aF0.9734810339039947
aF0.9491440080563948
aF0.9192682108089963
aF0.886874790198053
aF0.8566633098355153
aF0.8251090970124203
aF0.8098355152735818
aF0.8165491775763679
aF0.8397113125209802
aF0.8731117824773413
aF0.918932527693857
aF0.9506545820745217
aF0.9756629741524001
aF0.9909365558912386
aF0.9974823766364552
aF0.9996643168848607
aF0.9998321584424303
aF0.9998321584424303
aF1.0
aF1.0
aF1.0
aF1.0
aF1.0
aF1.0
aF0.9993286337697214
aF0.9929506545820745
aF0.9805303793219201
aF0.9528365223229271
aF0.9056730446458543
aF0.8440751930177912
aF0.7673716012084593
aF0.6705270224907687
aF0.5822423632091306
aF0.5189660960053709
aF0.481537428667338
aF0.49647532729103727
aF0.5330647868412219
aF0.6297415240013428
aF0.7269217858341726
aF0.823262839879154
aF0.9018126888217523
aF0.9561933534743202
aF0.9857334676065794
aF0.9983215844243034
aF0.9998321584424303
aF0.9998321584424303
aF1.0
aF1.0
aF1.0
aF1.0
aF1.0
aF0.9996643168848607
aF0.9968110104061766
aF0.9827123195703256
aF0.950990265189661
aF0.8937562940584088
aF0.8100033568311514
aF0.7104733131923464
aF0.6003692514266532
aF0.49580396106075864
aF0.409197717354817
aF0.34206109432695536
aF0.3049681101040618
aF0.3034575360859349
aF0.3464249748237664
aF0.4241356159785163
aF0.5545485062101376
aF0.6943605236656596
aF0.8108425646189996
aF0.9051695199731453
aF0.9629070157771064
aF0.9926149714669352
aF0.999496475327291
aF0.9998321584424303
aF1.0
aF1.0
aF1.0
aF1.0
aF1.0
aF0.9993286337697214
aF0.9932863376972139
aF0.968445787176905
aF0.9147364887546157
aF0.8282980866062437
aF0.7348103390399463
aF0.6294058408862034
aF0.5270224907687143
aF0.44142329640819067
aF0.3848606915072172
aF0.3459214501510574
aF0.32376636455186303
aF0.31738838536421615
aF0.3183954347096341
aF0.37210473313192344
aF0.4622356495468278
aF0.599026518966096
aF0.7359852299429339
aF0.8502853306478684
aF0.9377307821416583
aF0.9867405169519973
aF0.9993286337697214
aF1.0
aF1.0
aF1.0
aF1.0
aF1.0
aF0.9996643168848607
aF0.9991607922121517
aF0.9880832494125545
aF0.9558576703591809
aF0.8898959382343068
aF0.8071500503524672
aF0.7128230949983216
aF0.6297415240013428
aF0.5557233971131252
aF0.503860355824102
aF0.4887546156428332
aF0.4847264182611615
aF0.4765021819402484
aF0.4602215508559919
aF0.41809331990600873
aF0.40550520308828464
aF0.4464585431352803
aF0.5459885867740852
aF0.6822759315206445
aF0.8120174555219872
aF0.9118831822759316
aF0.9798590130916415
aF0.998992950654582
aF0.9998321584424303
aF1.0
aF1.0
aF1.0
aF1.0
aF0.9996643168848607
aF0.9984894259818731
aF0.9872440416247062
aF0.9521651560926485
aF0.8870426317556227
aF0.8187311178247734
aF0.7509231285666331
aF0.6983887210473313
aF0.6522322927156764
aF0.638804968110104
aF0.6416582745887882
aF0.6520644511581067
aF0.6433366901644847
aF0.6059080228264518
aF0.5312185297079557
aF0.4580396106075864
aF0.44729775092312857
aF0.5187982544478013
aF0.6555891238670695
aF0.7918764686136287
aF0.9006377979187646
aF0.9744880832494126
aF0.9996643168848607
aF1.0
aF1.0
aF1.0
aF1.0
aF1.0
aF0.9996643168848607
aF0.9981537428667338
aF0.9865726753944276
aF0.9555219872440416
aF0.9061765693185633
aF0.8583417254112118
aF0.8210808996307486
aF0.7940584088620343
aF0.7693856998992951
aF0.7700570661295737
aF0.7866733803289695
aF0.797079556898288
aF0.7821416582745888
aF0.7136623027861698
aF0.5963410540449815
aF0.4805303793219201
aF0.44662638469284993
aF0.5068815038603558
aF0.6461899966431689
aF0.7905337361530715
aF0.9044981537428667
aF0.9765021819402484
aF0.999496475327291
aF1.0
aF1.0
aF1.0
aF1.0
aF1.0
aF0.9998321584424303
aF0.9983215844243034
aF0.9919436052366566
aF0.9686136287344747
aF0.9338704263175562
aF0.9127223900637798
aF0.8882175226586103
aF0.877139979859013
aF0.8652232292715677
aF0.8726082578046325
aF0.8870426317556227
aF0.8867069486404834
aF0.8439073514602216
aF0.7494125545485062
aF0.6008727760993622
aF0.4791876468613629
aF0.4399127223900638
aF0.504363880496811
aF0.6565961732124874
aF0.8058073178919101
aF0.9169184290030211
aF0.9790198053037932
aF0.9979859013091642
aF0.999496475327291
aF0.9996643168848607
aF1.0
aF1.0
aF1.0
aF1.0
aF0.9991607922121517
aF0.9936220208123532
aF0.9793554884189325
aF0.9627391742195368
aF0.9525008392077878
aF0.9395770392749244
aF0.9306814367237328
aF0.9276602886874791
aF0.9335347432024169
aF0.9348774756629742
aF0.9112118160456529
aF0.8455857670359181
aF0.7156764014770057
aF0.56797583081571
aF0.454347096341054
aF0.4409197717354817
aF0.5240013427324606
aF0.6822759315206445
aF0.8348439073514602
aF0.9353810003356832
aF0.9827123195703256
aF0.9969788519637462
aF0.9988251090970124
aF0.9998321584424303
aF1.0
aF1.0
aF1.0
aF1.0
aF0.9996643168848607
aF0.9963074857334676
aF0.9889224572004028
aF0.9822087948976167
aF0.973313192346425
aF0.9639140651225243
aF0.9560255119167506
aF0.9488083249412554
aF0.9404162470627727
aF0.9217858341725411
aF0.8702584759986572
aF0.7745887881839544
aF0.643672373279624
aF0.5142665323934206
aF0.43739509902651896
aF0.45468277945619334
aF0.5634441087613293
aF0.725243370258476
aF0.8712655253440752
aF0.950990265189661
aF0.9860691507217187
aF0.9947969117153407
aF0.9974823766364552
aF0.9991607922121517
aF1.0
aF1.0
aF1.0
aF1.0
aF0.9996643168848607
aF0.9976502181940249
aF0.9921114467942262
aF0.9813695871097684
aF0.9692849949647533
aF0.9526686807653575
aF0.9306814367237328
aF0.9073514602215509
aF0.8702584759986572
aF0.8209130580731789
aF0.7509231285666331
aF0.6520644511581067
aF0.5471634776770729
aF0.4566968781470292
aF0.4266532393420611
aF0.48892245720040284
aF0.620845921450151
aF0.7797918764686136
aF0.9013091641490433
aF0.9615642833165492
aF0.9825444780127559
aF0.9875797247398456
aF0.9934541792547835
aF0.9978180597515945
aF0.9996643168848607
aF1.0
aF1.0
aF1.0
aF0.999496475327291
aF0.9964753272910373
aF0.9848942598187311
aF0.9608929170862706
aF0.9246391406512252
aF0.8823430681436724
aF0.829640819066801
aF0.7769385699899295
aF0.7150050352467271
aF0.6456864719704599
aF0.5676401477005707
aF0.49580396106075864
aF0.41725411211816044
aF0.3929170862705606
aF0.4295065458207452
aF0.5258475998657267
aF0.6701913393756294
aF0.8148707620006713
aF0.913561597851628
aF0.9587109768378651
aF0.9726418261161464
aF0.9806982208794898
aF0.990768714333669
aF0.9963074857334676
aF1.0
aF1.0
aF1.0
aF1.0
aF0.9973145350788856
aF0.9874118831822759
aF0.9563611950318899
aF0.9008056394763343
aF0.8303121852970795
aF0.7544478012755959
aF0.6765693185632763
aF0.599530043638805
aF0.5229942933870426
aF0.44377307821416584
aF0.37781134608929173
aF0.33400469956361195
aF0.32544478012755956
aF0.3610271903323263
aF0.4375629405840886
aF0.5671366230278617
aF0.7039274924471299
aF0.8224236320913058
aF0.8969452836522323
aF0.9342061094326956
aF0.9499832158442431
aF0.9639140651225243
aF0.9822087948976167
aF0.9939577039274925
aF0.9996643168848607
aF1.0
aF1.0
aF0.9996643168848607
aF0.9932863376972139
aF0.9662638469284995
aF0.8982880161127895
aF0.8031218529707955
aF0.7047667002349782
aF0.6070829137294395
aF0.5240013427324606
aF0.4526686807653575
aF0.3843571668345082
aF0.3180597515944948
aF0.2713997985901309
aF0.26502181940248404
aF0.2923799932863377
aF0.35381000335683116
aF0.45720040281973817
aF0.5720040281973817
aF0.6958710976837865
aF0.7843235985229943
aF0.8464249748237663
aF0.882510909701242
aF0.9088620342396777
aF0.9382343068143673
aF0.9659281638133602
aF0.9921114467942262
aF0.9993286337697214
aF1.0
aF1.0
aF0.9991607922121517
aF0.9840550520308828
aF0.9310171198388721
aF0.8316549177576368
aF0.7037596508895603
aF0.5961732124874118
aF0.5077207116482041
aF0.44662638469284993
aF0.40114132259147367
aF0.342732460557234
aF0.30060422960725075
aF0.27022490768714336
aF0.2762672037596509
aF0.30832494125545484
aF0.37210473313192344
aF0.4561933534743202
aF0.5469956361195032
aF0.6362873447465592
aF0.7087948976166499
aF0.7687143336690164
aF0.8116817724068479
aF0.8588452500839208
aF0.9031554212823095
aF0.9516616314199395
aF0.99026518966096
aF0.9998321584424303
aF1.0
aF1.0
aF0.999496475327291
aF0.9704598858677409
aF0.8919100369251427
aF0.76703591809332
aF0.6319234642497482
aF0.5199731453507889
aF0.45686471970459885
aF0.40584088620342396
aF0.3600201409869084
aF0.3306478684122189
aF0.29506545820745217
aF0.28348439073514603
aF0.3048002685464921
aF0.3403826787512588
aF0.3808324941255455
aF0.4337025847599866
aF0.4919436052366566
aF0.55824102047667
aF0.6201745552198724
aF0.6809331990600873
aF0.738335011748909
aF0.8034575360859348
aF0.8751258811681772
aF0.9514937898623699
aF0.9941255454850622
aF0.999496475327291
aF1.0
aF1.0
aF0.9988251090970124
aF0.9603893924135616
aF0.8687479019805304
aF0.7338032896945283
aF0.5882846592816381
aF0.467942262504196
aF0.39039946290701577
aF0.3392077878482712
aF0.3044645854313528
aF0.28415575696542467
aF0.2863376972138301
aF0.3004363880496811
aF0.33903994629070155
aF0.38049681101040617
aF0.4149043303121853
aF0.4434373950990265
aF0.4719704598858677
aF0.5057066129573683
aF0.552870090634441
aF0.6215172876804297
aF0.6990600872776099
aF0.7848271231957032
aF0.8794897616649883
aF0.9548506210137631
aF0.9937898623699228
aF0.9996643168848607
aF1.0
aF1.0
aF0.9981537428667338
aF0.9587109768378651
aF0.8669016448472642
aF0.7457200402819738
aF0.5886203423967774
aF0.4566968781470292
aF0.34659281638133604
aF0.27794561933534745
aF0.2583081570996979
aF0.2670359180933199
aF0.30513595166163143
aF0.37009063444108764
aF0.4316884860691507
aF0.4783484390735146
aF0.49530043638804966
aF0.5055387713997986
aF0.5040281973816717
aF0.5265189660960053
aF0.5708291372943941
aF0.6411547499160792
aF0.7275931520644512
aF0.8162134944612286
aF0.8992950654582075
aF0.9697885196374623
aF0.99513259483048
aF1.0
aF1.0
aF0.9998321584424303
aF0.9976502181940249
aF0.9704598858677409
aF0.8991272239006378
aF0.7940584088620343
aF0.6572675394427661
aF0.5199731453507889
aF0.4031554212823095
aF0.33434038267875127
aF0.32779456193353473
aF0.36253776435045315
aF0.42984222893588453
aF0.5040281973816717
aF0.56797583081571
aF0.615978516280631
aF0.6278952668680765
aF0.6206780798925814
aF0.6141322591473649
aF0.6230278616985566
aF0.6638133601879825
aF0.7287680429674387
aF0.8046324269889225
aF0.8764686136287345
aF0.9380664652567976
aF0.9837193689157435
aF0.9983215844243034
aF1.0
aF1.0
aF1.0
aF0.998992950654582
aF0.9853977844914401
aF0.947129909365559
aF0.8763007720711649
aF0.7814702920443102
aF0.6799261497146694
aF0.5874454514937899
aF0.5374286673380329
aF0.5344075193017791
aF0.5691507217186975
aF0.6300772071164821
aF0.6950318898959382
aF0.7460557233971131
aF0.7727425310506881
aF0.7777777777777778
aF0.7724068479355488
aF0.7651896609600537
aF0.7789526686807654
aF0.8031218529707955
aF0.8459214501510574
aF0.8898959382343068
aF0.9337025847599866
aF0.9714669352131587
aF0.9941255454850622
aF0.9998321584424303
aF1.0
aF1.0
aF1.0
aF0.9998321584424303
aF0.9968110104061766
aF0.9865726753944276
aF0.963074857334676
aF0.9283316549177576
aF0.8862034239677744
aF0.846592816381336
aF0.8230949983215844
aF0.8175562269217859
aF0.8306478684122188
aF0.8536421617992614
aF0.8796576032225579
aF0.8979523329976502
aF0.909701242027526
aF0.910708291372944
aF0.9120510238335012
aF0.9147364887546157
aF0.9209466263846928
aF0.9303457536085935
aF0.941255454850621
aF0.9600537092984223
aF0.9793554884189325
aF0.9927828130245049
aF0.9988251090970124
aF1.0
aF1.0
aF1.0
aF1.0
aF1.0
aF1.0
aF0.9991607922121517
aF0.9971466935213159
aF0.9939577039274925
aF0.9904330312185297
aF0.9867405169519973
aF0.9838872104733132
aF0.982040953340047
aF0.9803625377643505
aF0.9790198053037932
aF0.9796911715340718
aF0.9801946962067808
aF0.9815374286673381
aF0.9828801611278952
aF0.9833836858006042
aF0.9853977844914401
aF0.9882510909701242
aF0.9892581403155422
aF0.990768714333669
aF0.9931184961396442
aF0.9968110104061766
aF0.9981537428667338
aF0.999496475327291
aF1.0
aF1.0
aF1.0
aF1.0
aF1.0
aF1.0
aF1.0
aF1.0
aF0.9998321584424303
aF0.9996643168848607
aF0.9996643168848607
aF0.9996643168848607
aF0.999496475327291
aF0.9991607922121517
aF0.9993286337697214
aF0.9986572675394427
aF0.9974823766364552
aF0.9974823766364552
aF0.9979859013091642
aF0.9981537428667338
aF0.9984894259818731
aF0.998992950654582
aF0.9991607922121517
aF0.9993286337697214
aF0.9998321584424303
aF1.0
aF1.0
aF1.0
aF0.9998321584424303
aF1.0
aF1.0
aF1.0
aF1.0
aF1.0
aF1.0
aF1.0
aF1.0
aF1.0
aF1.0
aF1.0
aF1.0
aF1.0
aF1.0
aF1.0
aF1.0
aF1.0
aF1.0
aF1.0
aF1.0
aF1.0
aF1.0
aF1.0
aF1.0
aF1.0
aF1.0
aF1.0
aF1.0
aF1.0
aF1.0
aF1.0
aF1.0
aF1.0
aF1.0
aF1.0
aF1.0
aF1.0
aF1.0
aF1.0
aF1.0
aF1.0
aF1.0
aF1.0
aF1.0
aF1.0
aF1.0
aF1.0
aF1.0
aF1.0
aF1.0
aF1.0
aF1.0
aF1.0
aF1.0
aF1.0
aF1.0
aF1.0
aa(lp7
F1.0
aF1.0
aF1.0
aF1.0
aF1.0
aF1.0
aF1.0
aF1.0
aF1.0
aF1.0
aF1.0
aF1.0
aF1.0
aF1.0
aF1.0
aF1.0
aF1.0
aF1.0
aF1.0
aF1.0
aF1.0
aF1.0
aF1.0
aF1.0
aF1.0
aF1.0
aF1.0
aF1.0
aF1.0
aF1.0
aF1.0
aF1.0
aF1.0
aF1.0
aF1.0
aF1.0
aF1.0
aF1.0
aF1.0
aF1.0
aF1.0
aF1.0
aF1.0
aF1.0
aF1.0
aF1.0
aF1.0
aF1.0
aF1.0
aF1.0
aF1.0
aF1.0
aF1.0
aF1.0
aF1.0
aF1.0
aF1.0
aF1.0
aF1.0
aF1.0
aF1.0
aF1.0
aF1.0
aF1.0
aF1.0
aF1.0
aF0.9998368944707225
aF0.9998368944707225
aF0.9996737889414451
aF0.9996737889414451
aF0.9996737889414451
aF0.9996737889414451
aF0.9996737889414451
aF0.9996737889414451
aF0.9998368944707225
aF1.0
aF1.0
aF1.0
aF1.0
aF1.0
aF1.0
aF1.0
aF1.0
aF1.0
aF1.0
aF1.0
aF1.0
aF1.0
aF1.0
aF0.9995106834121676
aF0.9991844723536127
aF0.9982058391779481
aF0.9969009949437286
aF0.9936388843581797
aF0.9887457184798565
aF0.9810797586038167
aF0.9747186429619964
aF0.9712934268471701
aF0.9693361604958408
aF0.9725982710813896
aF0.9768390148426032
aF0.9799380198988745
aF0.9869515576578046
aF0.9916816180068504
aF0.9951068341216768
aF0.9982058391779481
aF0.9996737889414451
aF1.0
aF1.0
aF1.0
aF1.0
aF1.0
aF1.0
aF1.0
aF1.0
aF1.0
aF0.9990213668243354
aF0.9936388843581797
aF0.9853205023650302
aF0.9647692056760724
aF0.9355733159354103
aF0.8956124612624368
aF0.8393410536617192
aF0.7817648018267819
aF0.7391942586853695
aF0.7109770021203718
aF0.7098352634154298
aF0.7287555048116131
aF0.7698580981895287
aF0.8295547219050726
aF0.8799543304518023
aF0.9266025118251509
aF0.9642798890882401
aF0.9864622410699723
aF0.9952699396509541
aF0.9998368944707225
aF1.0
aF1.0
aF1.0
aF1.0
aF1.0
aF1.0
aF1.0
aF0.998858261295058
aF0.9902136682433534
aF0.9698254770836732
aF0.9311694666449193
aF0.8737563203392595
aF0.7904093948784864
aF0.6847170119067036
aF0.5664655031805578
aF0.4550644266840646
aF0.37285923992823355
aF0.31560919915185126
aF0.30484423421954004
aF0.33583428478225413
aF0.4129832001304844
aF0.5305822867395205
aF0.6617191322785843
aF0.774425053009297
aF0.8708204208122655
aF0.9420975371065079
aF0.9814059696623716
aF0.9962485728266188
aF0.9998368944707225
aF1.0
aF1.0
aF1.0
aF1.0
aF1.0
aF0.9998368944707225
aF0.9931495677703475
aF0.9721089544935574
aF0.9334529440548035
aF0.8678845212852716
aF0.7705105203066384
aF0.6501386396998858
aF0.5211221660414288
aF0.4059696623715544
aF0.3143043549176317
aF0.25656499755341705
aF0.2152992986462241
aF0.19409557984015657
aF0.19409557984015657
aF0.2368292285108465
aF0.34398956124612623
aF0.4793671505464035
aF0.6323601370086446
aF0.7654542488990377
aF0.882074702332409
aF0.9579187734464198
aF0.9908660903604632
aF0.9993475778828902
aF1.0
aF1.0
aF1.0
aF1.0
aF0.9995106834121676
aF0.9996737889414451
aF0.990050562714076
aF0.9577556679171424
aF0.9091502201924645
aF0.8293916163757952
aF0.7357690425705431
aF0.6364377752405806
aF0.5353123470885663
aF0.46256728103082695
aF0.42195400424074375
aF0.40776382319360627
aF0.38884358179742295
aF0.36323601370086445
aF0.31675093785679337
aF0.2947316914043386
aF0.32751590278910453
aF0.43190344152666776
aF0.5571684880117436
aF0.7060838362420486
aF0.8424400587179905
aF0.9404664818137335
aF0.9864622410699723
aF0.9986951557657805
aF1.0
aF1.0
aF1.0
aF1.0
aF0.9998368944707225
aF0.9993475778828902
aF0.9864622410699723
aF0.9551459794487033
aF0.9114336976023487
aF0.8530419181210243
aF0.7882890229978796
aF0.7259827108138965
aF0.6801500570869352
aF0.652748328168325
aF0.6506279562877182
aF0.6604142880443648
aF0.6485075844071114
aF0.597129342684717
aF0.5028543467623553
aF0.4141249388354265
aF0.38329799380198987
aF0.43043549176317075
aF0.5457511009623226
aF0.6979285597781765
aF0.8355896264883379
aF0.9355733159354103
aF0.9871146631870821
aF0.9993475778828902
aF1.0
aF1.0
aF1.0
aF1.0
aF0.9998368944707225
aF0.9990213668243354
aF0.9902136682433534
aF0.9680313162616213
aF0.9388354265209591
aF0.9009949437285923
aF0.866579677051052
aF0.8466808024792041
aF0.8287391942586854
aF0.8228673952046974
aF0.8233567117925298
aF0.8187897569727614
aF0.7781764801826782
aF0.6824335344968194
aF0.5460773120208775
aF0.42961996411678355
aF0.37090197357690424
aF0.4431577230468113
aF0.5809818952862502
aF0.7354428315119883
aF0.8691893655194911
aF0.9494372859239928
aF0.9902136682433534
aF1.0
aF1.0
aF1.0
aF1.0
aF1.0
aF0.9998368944707225
aF0.9995106834121676
aF0.9928233567117926
aF0.9820583917794813
aF0.9688468439080085
aF0.95025281357038
aF0.9370412656989072
aF0.9297015168814223
aF0.9164899690099494
aF0.8969173054966564
aF0.8659272549339423
aF0.8052519980427336
aF0.7005382482466156
aF0.5615723373022345
aF0.4185287881259175
aF0.33420322948947967
aF0.3521448377099984
aF0.48262926113195237
aF0.6545424889903768
aF0.8032947316914043
aF0.9158375468928397
aF0.9732506931984994
aF0.994454412004567
aF1.0
aF0.9998368944707225
aF1.0
aF1.0
aF1.0
aF1.0
aF0.9996737889414451
aF0.9957592562387865
aF0.9905398793019083
aF0.9840156581308106
aF0.9778176480182679
aF0.9703147936715054
aF0.9528625020388192
aF0.9176317077148916
aF0.8492904909476431
aF0.7452291632686348
aF0.611482629261132
aF0.46370901973576906
aF0.3452944054803458
aF0.26292611319523734
aF0.27075517860055454
aF0.3713912901647366
aF0.5539063774261948
aF0.7364214646876529
aF0.8724514761050399
aF0.9556352960365356
aF0.9884195074213016
aF0.9983689447072256
aF1.0
aF0.9998368944707225
aF1.0
aF1.0
aF1.0
aF1.0
aF1.0
aF0.9983689447072256
aF0.9954330451802316
aF0.9911923014190182
aF0.9851573968357528
aF0.9694992660251183
aF0.9285597781764802
aF0.8378731038982221
aF0.6945033436633502
aF0.5253629098026423
aF0.3702495514597945
aF0.24938835426520958
aF0.17778502691241233
aF0.17615397161963792
aF0.23960202250856305
aF0.3837873103898222
aF0.5915837546892839
aF0.7656173544283151
aF0.896427988908824
aF0.9680313162616213
aF0.9931495677703475
aF0.9991844723536127
aF0.9998368944707225
aF0.9998368944707225
aF1.0
aF1.0
aF1.0
aF1.0
aF1.0
aF0.9993475778828902
aF0.9969009949437286
aF0.9946175175338444
aF0.984178763660088
aF0.95726635132931
aF0.8863154460936226
aF0.7535475452617844
aF0.5695645082368292
aF0.38688631544609364
aF0.25411841461425544
aF0.18512477572989725
aF0.17207633338770184
aF0.19947806230631218
aF0.25689120861197196
aF0.37041265698907194
aF0.5263415429783069
aF0.7080411025933779
aF0.8628282498776708
aF0.9458489642798891
aF0.9864622410699723
aF0.9977165225901158
aF0.9996737889414451
aF0.9998368944707225
aF1.0
aF1.0
aF1.0
aF1.0
aF1.0
aF0.9990213668243354
aF0.9977165225901158
aF0.9928233567117926
aF0.9833632360137009
aF0.9500897080411026
aF0.8698417876366009
aF0.7377263089218724
aF0.5762518349372043
aF0.43647039634643614
aF0.3511662045343337
aF0.3253955309084978
aF0.327679008318382
aF0.3327352797259827
aF0.33501875713586693
aF0.3521448377099984
aF0.4336976023487196
aF0.5904420159843419
aF0.7696949926602512
aF0.8944707225574947
aF0.9665633664981242
aF0.9920078290654053
aF0.9993475778828902
aF1.0
aF1.0
aF1.0
aF1.0
aF0.9998368944707225
aF0.9993475778828902
aF0.9977165225901158
aF0.9933126732996248
aF0.9880932963627467
aF0.9797749143695972
aF0.9562877181536454
aF0.9005056271407601
aF0.8086772141575599
aF0.7028217256564998
aF0.6238786494862176
aF0.5879954330451802
aF0.5813081063448051
aF0.5769042570543141
aF0.550318055782091
aF0.47985646713423585
aF0.40335997390311534
aF0.392921220029359
aF0.4942097537106508
aF0.672320991681618
aF0.8390148426031643
aF0.9339422606426357
aF0.9833632360137009
aF0.9983689447072256
aF1.0
aF0.9998368944707225
aF1.0
aF1.0
aF0.9998368944707225
aF0.9970641004730061
aF0.9921709345946828
aF0.9832001304844235
aF0.9755341706083837
aF0.9694992660251183
aF0.9575925623878649
aF0.9316587832327516
aF0.8892513456206166
aF0.8523894960039146
aF0.8254770836731365
aF0.820094601206981
aF0.8114500081552765
aF0.7908987114663187
aF0.736095253629098
aF0.6266514434839341
aF0.46876529114336973
aF0.3878649486217583
aF0.446746044690915
aF0.6150709509052357
aF0.7856793345294405
aF0.9067036372533029
aF0.9685206328494536
aF0.9960854672973414
aF1.0
aF1.0
aF1.0
aF1.0
aF0.9998368944707225
aF0.9964116783558963
aF0.9822214973087587
aF0.9641167835589627
aF0.9522100799217094
aF0.947316914043386
aF0.9383461099331267
aF0.9358995269939651
aF0.9385092154624042
aF0.9329636274669711
aF0.9328005219376937
aF0.9285597781764802
aF0.9202413961833306
aF0.896427988908824
aF0.8192790735605937
aF0.6832490621432067
aF0.5080737236992334
aF0.4010764964932311
aF0.43614418528788124
aF0.5969662371554396
aF0.7615397161963791
aF0.8851737073886805
aF0.9606915674441363
aF0.9951068341216768
aF1.0
aF1.0
aF1.0
aF1.0
aF0.9998368944707225
aF0.9931495677703475
aF0.9680313162616213
aF0.9358995269939651
aF0.9107812754852389
aF0.8938183004403849
aF0.889414451149894
aF0.9000163105529277
aF0.9197520795954983
aF0.9326374164084162
aF0.9434023813407274
aF0.9456858587506116
aF0.9368781601696298
aF0.9018104713749796
aF0.8029685206328494
aF0.6455716848801174
aF0.4813244168977328
aF0.3925950089708041
aF0.4454412004566955
aF0.6021856140923177
aF0.761865927254934
aF0.8804436470396346
aF0.9623226227369108
aF0.9960854672973414
aF1.0
aF1.0
aF1.0
aF1.0
aF0.9998368944707225
aF0.9890719295384114
aF0.9540042407437612
aF0.9018104713749796
aF0.8492904909476431
aF0.8143859076822705
aF0.8016636763986299
aF0.8075354754526178
aF0.833795465666286
aF0.8680476268145491
aF0.892350350676888
aF0.8970804110259338
aF0.8766922198662535
aF0.8103082694503344
aF0.6918936551949111
aF0.5315609199151852
aF0.40352307943239274
aF0.38656010438753874
aF0.4692546077312021
aF0.6348067199478062
aF0.7840482792366661
aF0.8992007829065405
aF0.9745555374327189
aF0.9977165225901158
aF1.0
aF1.0
aF1.0
aF1.0
aF0.9993475778828902
aF0.987440874245637
aF0.9448703311042245
aF0.8802805415103572
aF0.8018267819279074
aF0.7343010928070461
aF0.6897732833143043
aF0.6626977654542489
aF0.6742782580329473
aF0.7163594845865274
aF0.7395204697439243
aF0.7411515250366988
aF0.7010275648344478
aF0.608546729734138
aF0.4914369597129343
aF0.3790572500407764
aF0.3359973903115316
aF0.39096395367802966
aF0.5346599249714565
aF0.6931984994291307
aF0.8357527320176154
aF0.9341053661719132
aF0.9838525526015331
aF0.998858261295058
aF1.0
aF1.0
aF1.0
aF1.0
aF0.9995106834121676
aF0.9902136682433534
aF0.954656662860871
aF0.8874571847985647
aF0.7961180884031969
aF0.6870004893165879
aF0.5909313325721742
aF0.509052356874898
aF0.4819768390148426
aF0.4756157233730223
aF0.4832816832490621
aF0.46876529114336973
aF0.4229326374164084
aF0.3581797422932637
aF0.2986462241069972
aF0.280867721415756
aF0.34855651606589466
aF0.4854020551296689
aF0.6489969009949438
aF0.7969336160495841
aF0.903441526667754
aF0.9698254770836732
aF0.9941282009460121
aF0.9996737889414451
aF1.0
aF1.0
aF1.0
aF1.0
aF1.0
aF0.9928233567117926
aF0.9704778992007829
aF0.919262763007666
aF0.8432555863643778
aF0.7227206002283477
aF0.5884847496330126
aF0.46109933126732994
aF0.3503506768879465
aF0.28837057576251834
aF0.24759419344315772
aF0.2306312183983037
aF0.21823519817321807
aF0.22166041428804437
aF0.259500897080411
aF0.3580166367639863
aF0.49763496982547706
aF0.6579677051052031
aF0.7938346109933127
aF0.8956124612624368
aF0.9597129342684717
aF0.9889088240091339
aF0.9983689447072256
aF1.0
aF1.0
aF1.0
aF1.0
aF1.0
aF1.0
aF0.9975534170608383
aF0.9862991355406948
aF0.9564508236829229
aF0.9080084814875224
aF0.827108138965911
aF0.7099983689447072
aF0.5822867395204697
aF0.45685858750611646
aF0.35426520959060515
aF0.2890229978796281
aF0.2674930680150057
aF0.2873919425868537
aF0.3650301745229163
aF0.4774098841950742
aF0.6074049910291959
aF0.7351166204534334
aF0.8412983200130485
aF0.9171423911270592
aF0.9667264720274017
aF0.9893981405969663
aF0.9970641004730061
aF0.9996737889414451
aF0.9998368944707225
aF1.0
aF1.0
aF1.0
aF1.0
aF1.0
aF0.9996737889414451
aF0.9954330451802316
aF0.9840156581308106
aF0.9665633664981242
aF0.9352471048768554
aF0.8892513456206166
aF0.8287391942586854
aF0.7675746207796444
aF0.7070624694177132
aF0.6667754036861849
aF0.6592725493394226
aF0.6799869515576578
aF0.7263089218724514
aF0.8003588321644104
aF0.8662534659924972
aF0.9202413961833306
aF0.9597129342684717
aF0.9823846028380362
aF0.9942913064752895
aF0.9978796281193932
aF0.9993475778828902
aF0.9998368944707225
aF1.0
aF1.0
aF1.0
aF1.0
aF1.0
aF1.0
aF1.0
aF0.9998368944707225
aF0.9986951557657805
aF0.9964116783558963
aF0.9920078290654053
aF0.9869515576578046
aF0.9792855977817648
aF0.9722720600228347
aF0.961670200619801
aF0.9580818789756973
aF0.9571032458000326
aF0.9608546729734138
aF0.9667264720274017
aF0.9747186429619964
aF0.9827108138965911
aF0.9902136682433534
aF0.9946175175338444
aF0.9972272060022834
aF0.998858261295058
aF0.9995106834121676
aF0.9996737889414451
aF1.0
aF1.0
aF1.0
aF1.0
aF1.0
aF1.0
aF1.0
aF1.0
aF1.0
aF1.0
aF1.0
aF0.9996737889414451
aF0.9995106834121676
aF0.9995106834121676
aF0.9993475778828902
aF0.998858261295058
aF0.9986951557657805
aF0.998532050236503
aF0.9983689447072256
aF0.998858261295058
aF0.9990213668243354
aF0.9986951557657805
aF0.9990213668243354
aF0.9991844723536127
aF0.9993475778828902
aF0.9996737889414451
aF0.9998368944707225
aF1.0
aF1.0
aF1.0
aF1.0
aF1.0
aF1.0
aF1.0
aF1.0
aF1.0
aF1.0
aF1.0
aF1.0
aF1.0
aF1.0
aF1.0
aF1.0
aF1.0
aF1.0
aF1.0
aF1.0
aF1.0
aF1.0
aF1.0
aF1.0
aF1.0
aF1.0
aF1.0
aF1.0
aF1.0
aF1.0
aF1.0
aF1.0
aF1.0
aF1.0
aa(lp8
F1.0
aF1.0
aF1.0
aF1.0
aF1.0
aF1.0
aF1.0
aF1.0
aF1.0
aF1.0
aF1.0
aF1.0
aF1.0
aF1.0
aF1.0
aF1.0
aF1.0
aF1.0
aF1.0
aF1.0
aF1.0
aF1.0
aF1.0
aF1.0
aF1.0
aF1.0
aF1.0
aF1.0
aF1.0
aF1.0
aF1.0
aF1.0
aF1.0
aF1.0
aF1.0
aF1.0
aF1.0
aF1.0
aF1.0
aF1.0
aF1.0
aF1.0
aF0.999828825744608
aF1.0
aF1.0
aF1.0
aF1.0
aF1.0
aF1.0
aF1.0
aF1.0
aF1.0
aF1.0
aF1.0
aF1.0
aF1.0
aF1.0
aF1.0
aF1.0
aF1.0
aF1.0
aF1.0
aF1.0
aF1.0
aF1.0
aF1.0
aF1.0
aF1.0
aF0.999828825744608
aF0.999657651489216
aF0.999486477233824
aF0.999486477233824
aF0.999657651489216
aF0.999828825744608
aF1.0
aF0.999657651489216
aF0.999657651489216
aF0.999828825744608
aF0.999828825744608
aF1.0
aF1.0
aF1.0
aF1.0
aF1.0
aF1.0
aF1.0
aF1.0
aF1.0
aF1.0
aF1.0
aF1.0
aF0.999828825744608
aF0.999828825744608
aF0.999657651489216
aF0.9989729544676481
aF0.9982882574460801
aF0.9982882574460801
aF0.9981170831906881
aF0.9969188634029442
aF0.9960629921259843
aF0.9958918178705922
aF0.9965765148921603
aF0.9960629921259843
aF0.9945224238274564
aF0.9929818555289285
aF0.9936665525504964
aF0.9967476891475522
aF0.9979459089352961
aF0.99914412872304
aF0.999828825744608
aF1.0
aF1.0
aF1.0
aF1.0
aF1.0
aF1.0
aF0.999657651489216
aF0.998630605956864
aF0.9979459089352961
aF0.9958918178705922
aF0.9931530297843204
aF0.9912701129750086
aF0.9876754536117768
aF0.9839096199931531
aF0.9809996576514892
aF0.9827114002054091
aF0.984594317014721
aF0.9809996576514892
aF0.9724409448818898
aF0.9654228004108182
aF0.9570352618966107
aF0.9479630263608353
aF0.9440260184868196
aF0.953269428277987
aF0.9626840123245464
aF0.9775761725436495
aF0.9919548099965765
aF0.9988017802122561
aF0.999828825744608
aF1.0
aF1.0
aF1.0
aF1.0
aF1.0
aF0.9979459089352961
aF0.9933242040397124
aF0.9857925368024649
aF0.9763779527559056
aF0.9649092776446423
aF0.9419719274221157
aF0.9293050325231085
aF0.9174940089010613
aF0.9115029099623416
aF0.9236562820951729
aF0.9287915097569326
aF0.9286203355015406
aF0.9010612803834304
aF0.8644299897295447
aF0.8361862375898664
aF0.8255734337555631
aF0.8308798356727148
aF0.8541595344060253
aF0.8885655597398151
aF0.9263950701814447
aF0.9697021567956179
aF0.9934953782951044
aF0.999657651489216
aF1.0
aF1.0
aF1.0
aF1.0
aF0.9993153029784321
aF0.9950359465936324
aF0.984594317014721
aF0.9707292023279699
aF0.9477918521054434
aF0.9150975693255734
aF0.8685381718589524
aF0.8298527901403628
aF0.8173570694967477
aF0.8163300239643958
aF0.844060253337898
aF0.8803491954809997
aF0.8829168093118795
aF0.8408079424854502
aF0.7695994522423828
aF0.7125984251968503
aF0.6985621362547073
aF0.7319411160561452
aF0.7761040739472783
aF0.8332762752482027
aF0.8899349537829511
aF0.952927079767203
aF0.9899007189318726
aF0.9984594317014721
aF1.0
aF1.0
aF1.0
aF1.0
aF0.9984594317014721
aF0.9917836357411846
aF0.9755220814789456
aF0.9553235193426909
aF0.9118452584731257
aF0.8555289284491613
aF0.78226634714139
aF0.7264635398836015
aF0.7096884628551866
aF0.7268058883943855
aF0.7790140362889422
aF0.8361862375898664
aF0.8510783978089695
aF0.7949332420403972
aF0.6925710373159877
aF0.6116056145155768
aF0.6027045532351935
aF0.6595344060253338
aF0.734337555631633
aF0.8151318041766519
aF0.8894214310167751
aF0.9556658678534748
aF0.9888736733995207
aF0.9984594317014721
aF1.0
aF1.0
aF1.0
aF0.999828825744608
aF0.9976035604245121
aF0.9878466278671688
aF0.9693598082848339
aF0.9402601848681958
aF0.8782951044162958
aF0.7983567271482369
aF0.6958233481684355
aF0.6302636083533036
aF0.6126326600479288
aF0.6526874358096543
aF0.734679904142417
aF0.8214652516261555
aF0.844402601848682
aF0.766347141389935
aF0.6304347826086957
aF0.5231085244779186
aF0.5279014036288943
aF0.6148579253680246
aF0.7314275932899692
aF0.8305374871619309
aF0.9168093118794933
aF0.9698733310510099
aF0.9936665525504964
aF0.99914412872304
aF1.0
aF1.0
aF1.0
aF0.999828825744608
aF0.9981170831906881
aF0.9869907565902089
aF0.9631975350907224
aF0.9238274563505648
aF0.84251968503937
aF0.734166381376241
aF0.6044162957891133
aF0.5368024649092776
aF0.5426223895926052
aF0.6121191372817528
aF0.7353646011639849
aF0.84337555631633
aF0.8539883601506334
aF0.7384457377610407
aF0.5561451557685724
aF0.4498459431701472
aF0.47740499828825744
aF0.609722697706265
aF0.7547072920232797
aF0.8685381718589524
aF0.9489900718931873
aF0.984936665525505
aF0.9967476891475522
aF0.999486477233824
aF1.0
aF1.0
aF1.0
aF0.999657651489216
aF0.9969188634029442
aF0.984423142759329
aF0.9566929133858267
aF0.9003765833618623
aF0.796987333105101
aF0.6549127011297501
aF0.516432728517631
aF0.4560082163642588
aF0.5065046217048956
aF0.6338582677165354
aF0.7928791509756933
aF0.8937007874015748
aF0.8618623758986649
aF0.6947963026360835
aF0.4722697706264978
aF0.3784662786716878
aF0.453440602533379
aF0.6355700102704553
aF0.8022937350222527
aF0.9144128723040055
aF0.9744950359465936
aF0.9936665525504964
aF0.9979459089352961
aF1.0
aF1.0
aF1.0
aF1.0
aF0.999486477233824
aF0.9957206436152003
aF0.9828825744608011
aF0.9462512838069155
aF0.8700787401574803
aF0.733652858610065
aF0.5619650804519001
aF0.4188634029441972
aF0.3969530982540226
aF0.515576857240671
aF0.701985621362547
aF0.8733310510099281
aF0.9269085929476206
aF0.84423142759329
aF0.6052721670660732
aF0.37127695994522425
aF0.3206093803491955
aF0.4666210201985621
aF0.6841834988017802
aF0.8519342690859295
aF0.9435124957206437
aF0.9859637110578569
aF0.9969188634029442
aF0.999486477233824
aF0.999828825744608
aF1.0
aF1.0
aF0.999828825744608
aF0.999486477233824
aF0.9953782951044163
aF0.9809996576514892
aF0.9323861691201644
aF0.8255734337555631
aF0.6492639507018144
aF0.4498459431701472
aF0.3242040397124272
aF0.37470044505306405
aF0.5641903457719959
aF0.7733652858610065
aF0.8926737418692229
aF0.8935296131461828
aF0.7579596028757275
aF0.47586442998972955
aF0.2726805888394386
aF0.30571722013009245
aF0.5039370078740157
aF0.7321122903115371
aF0.8786374529270797
aF0.9522423827456351
aF0.983567271482369
aF0.9928106812735364
aF0.9988017802122561
aF0.999828825744608
aF1.0
aF1.0
aF0.999828825744608
aF0.999828825744608
aF0.9960629921259843
aF0.9732968161588497
aF0.9089352961314618
aF0.7598425196850394
aF0.5489558370421088
aF0.34697021567956177
aF0.2591578226634714
aF0.3543307086614173
aF0.5593974666210202
aF0.7276617596713454
aF0.7860321807600137
aF0.7456350564875043
aF0.577884286203355
aF0.3230058199246833
aF0.19496747689147553
aF0.2983567271482369
aF0.5205409106470387
aF0.7304005477576172
aF0.8627182471756247
aF0.937863745292708
aF0.969188634029442
aF0.9864772338240329
aF0.9974323861691201
aF0.999486477233824
aF1.0
aF1.0
aF0.999828825744608
aF0.999828825744608
aF0.9943512495720643
aF0.9640534063676823
aF0.8777815816501198
aF0.6961656966792195
aF0.4719274221157138
aF0.27730229373502224
aF0.2141389934953783
aF0.29596028757274906
aF0.43187264635398837
aF0.5196850393700787
aF0.531153714481342
aF0.48510783978089694
aF0.3373844573776104
aF0.1799041424169805
aF0.1419034577199589
aF0.28021225607668604
aF0.49144128723040054
aF0.6894899007189319
aF0.8248887367339952
aF0.905169462512838
aF0.9477918521054434
aF0.9806573091407053
aF0.9962341663813763
aF0.999828825744608
aF1.0
aF1.0
aF1.0
aF0.999828825744608
aF0.9917836357411846
aF0.9594317014720986
aF0.8555289284491613
aF0.6682642930503252
aF0.468503937007874
aF0.2844916124614858
aF0.21978774392331393
aF0.23844573776104075
aF0.2846627867168778
aF0.3076001369394043
aF0.3034919548099966
aF0.2591578226634714
aF0.1785347483738446
aF0.11074974323861692
aF0.13334474495035947
aF0.28825744608010956
aF0.4957206436152003
aF0.6831564532694283
aF0.8165011982197877
aF0.8925025676138308
aF0.9435124957206437
aF0.9782608695652174
aF0.9952071208490243
aF0.999657651489216
aF1.0
aF1.0
aF1.0
aF1.0
aF0.9941800753166724
aF0.9673057172201301
aF0.8627182471756247
aF0.7098596371105785
aF0.5552892844916124
aF0.4171516603902773
aF0.34269085929476206
aF0.3166723724751797
aF0.32249229715850736
aF0.32403286545703525
aF0.3019513865114687
aF0.23998630605956864
aF0.1627867168777816
aF0.13009243409791169
aF0.20403971242725094
aF0.3767545361177679
aF0.5867853474837385
aF0.7482026703183842
aF0.8553577541937692
aF0.9176651831564533
aF0.9608010955152345
aF0.9828825744608011
aF0.9965765148921603
aF0.999486477233824
aF1.0
aF1.0
aF1.0
aF0.999657651489216
aF0.9965765148921603
aF0.9750085587127696
aF0.9097911674084218
aF0.8135912358781239
aF0.7199589181787059
aF0.6434440260184868
aF0.5977404998288257
aF0.5773707634371791
aF0.5633344744950359
aF0.5438206093803492
aF0.4768914755220815
aF0.36357411845258475
aF0.2610407394727833
aF0.24477918521054434
aF0.36015063334474495
aF0.5371448134200616
aF0.719103046901746
aF0.8387538514207463
aF0.9145840465593975
aF0.9570352618966107
aF0.9789455665867853
aF0.9929818555289285
aF0.9984594317014721
aF0.999828825744608
aF1.0
aF1.0
aF1.0
aF1.0
aF0.9979459089352961
aF0.9878466278671688
aF0.9548099965765149
aF0.9091064703868538
aF0.8675111263266004
aF0.8399520712084902
aF0.8296816158849709
aF0.8159876754536117
aF0.7877439233139336
aF0.7312564190345772
aF0.6152002738788086
aF0.4784320438206094
aF0.38805203697363916
aF0.3892502567613831
aF0.5071893187264636
aF0.671858952413557
aF0.812735364601164
aF0.9007189318726464
aF0.9515576857240671
aF0.9780896953098254
aF0.9902430674426567
aF0.9972612119137282
aF0.999657651489216
aF1.0
aF1.0
aF1.0
aF1.0
aF0.999828825744608
aF0.9984594317014721
aF0.9934953782951044
aF0.9818555289284492
aF0.9693598082848339
aF0.9575487846627867
aF0.9474495035946594
aF0.9395754878466279
aF0.922800410818213
aF0.8798356727148237
aF0.7903115371448134
aF0.6579938377268059
aF0.5364601163984937
aF0.47945908935296133
aF0.500171174255392
aF0.5977404998288257
aF0.733310510099281
aF0.8490243067442657
aF0.921088668264293
aF0.9630263608353303
aF0.985107839780897
aF0.9941800753166724
aF0.9988017802122561
aF0.999828825744608
aF1.0
aF1.0
aF1.0
aF1.0
aF0.999828825744608
aF0.9993153029784321
aF0.9981170831906881
aF0.9946935980828483
aF0.9899007189318726
aF0.9863060595686409
aF0.9820267031838411
aF0.9679904142416981
aF0.9339267374186923
aF0.8699075659020883
aF0.765833618623759
aF0.6578226634714139
aF0.5773707634371791
aF0.5443341321465252
aF0.5717220130092434
aF0.6473810338925026
aF0.7627524820267032
aF0.8575830195138651
aF0.9241698048613488
aF0.9649092776446423
aF0.983224922971585
aF0.9938377268058884
aF0.9982882574460801
aF0.999828825744608
aF1.0
aF1.0
aF1.0
aF1.0
aF1.0
aF1.0
aF0.999486477233824
aF0.9977747346799042
aF0.9972612119137282
aF0.9921259842519685
aF0.9825402259500171
aF0.9560082163642588
aF0.9104758644299897
aF0.8334474495035946
aF0.7398151318041767
aF0.6593632317699418
aF0.6198219787743924
aF0.5958575830195139
aF0.6225607668606642
aF0.6829852790140363
aF0.7778158165011982
aF0.8563847997261211
aF0.9207463197535091
aF0.9613146182814105
aF0.9809996576514892
aF0.9922971585073604
aF0.9976035604245121
aF0.999828825744608
aF1.0
aF1.0
aF1.0
aF1.0
aF1.0
aF1.0
aF1.0
aF0.999486477233824
aF0.9972612119137282
aF0.9905854159534406
aF0.9751797329681616
aF0.9433413214652516
aF0.8861691201643273
aF0.8108524477918521
aF0.7331393358438891
aF0.6846970215679562
aF0.65662444368367
aF0.640191715166039
aF0.6646696336870934
aF0.7134542964738103
aF0.7908250599109894
aF0.8560424512153372
aF0.9161246148579254
aF0.9572064361520027
aF0.9799726121191373
aF0.9912701129750086
aF0.9977747346799042
aF0.999486477233824
aF1.0
aF1.0
aF1.0
aF1.0
aF1.0
aF1.0
aF1.0
aF0.999657651489216
aF0.9962341663813763
aF0.9873331051009928
aF0.969188634029442
aF0.9349537829510441
aF0.8844573776104074
aF0.8171858952413557
aF0.7608695652173914
aF0.7290311537144814
aF0.7120849024306745
aF0.6963368709346114
aF0.7165354330708661
aF0.7514549811708319
aF0.8113659705580281
aF0.8716193084560082
aF0.9188634029441972
aF0.9606299212598425
aF0.9821978774392331
aF0.9929818555289285
aF0.9984594317014721
aF0.999657651489216
aF1.0
aF1.0
aF1.0
aF1.0
aF1.0
aF1.0
aF1.0
aF0.9993153029784321
aF0.9958918178705922
aF0.9900718931872646
aF0.9748373844573777
aF0.9496747689147552
aF0.9145840465593975
aF0.8741869222868881
aF0.845258473125642
aF0.8272851763094831
aF0.8132488873673399
aF0.8050325231085245
aF0.8216364258815474
aF0.8476549127011298
aF0.8824032865457035
aF0.9200616227319411
aF0.952755905511811
aF0.9762067785005135
aF0.9897295446764807
aF0.9958918178705922
aF0.99914412872304
aF1.0
aF1.0
aF1.0
aF1.0
aF1.0
aF1.0
aF1.0
aF1.0
aF0.999828825744608
aF0.998630605956864
aF0.9972612119137282
aF0.9921259842519685
aF0.9827114002054091
aF0.9731256419034577
aF0.9669633687093461
aF0.9633687093461143
aF0.952927079767203
aF0.9447107155083876
aF0.9472783293392674
aF0.9522423827456351
aF0.9652516261554263
aF0.9736391646696337
aF0.985450188291681
aF0.9933242040397124
aF0.9969188634029442
aF0.9981170831906881
aF0.9993153029784321
aF1.0
aF1.0
aF1.0
aF1.0
aF1.0
aF1.0
aF1.0
aF1.0
aF1.0
aF0.999828825744608
aF0.999828825744608
aF1.0
aF0.999486477233824
aF0.99914412872304
aF0.9982882574460801
aF0.998630605956864
aF0.9982882574460801
aF0.9988017802122561
aF0.9979459089352961
aF0.9984594317014721
aF0.9989729544676481
aF0.99914412872304
aF0.9993153029784321
aF0.999657651489216
aF1.0
aF1.0
aF1.0
aF0.999828825744608
aF1.0
aF1.0
aF1.0
aF1.0
aF1.0
aF1.0
aF1.0
aF1.0
aF1.0
aF1.0
aF1.0
aF1.0
aF1.0
aF1.0
aF1.0
aF1.0
aF1.0
aF1.0
aF1.0
aF1.0
aF1.0
aF1.0
aF1.0
aF1.0
aF1.0
aF1.0
aF1.0
aF1.0
aF1.0
aF1.0
aF1.0
aF1.0
aa(lp9
F1.0
aF1.0
aF1.0
aF1.0
aF1.0
aF1.0
aF1.0
aF1.0
aF1.0
aF1.0
aF1.0
aF1.0
aF1.0
aF1.0
aF1.0
aF1.0
aF1.0
aF1.0
aF1.0
aF1.0
aF1.0
aF1.0
aF1.0
aF1.0
aF1.0
aF1.0
aF1.0
aF1.0
aF1.0
aF1.0
aF1.0
aF1.0
aF1.0
aF1.0
aF1.0
aF1.0
aF1.0
aF1.0
aF1.0
aF1.0
aF1.0
aF1.0
aF1.0
aF1.0
aF1.0
aF1.0
aF1.0
aF1.0
aF1.0
aF1.0
aF1.0
aF1.0
aF1.0
aF1.0
aF1.0
aF1.0
aF1.0
aF1.0
aF1.0
aF1.0
aF1.0
aF1.0
aF1.0
aF1.0
aF1.0
aF1.0
aF1.0
aF1.0
aF1.0
aF1.0
aF1.0
aF0.9998155321896329
aF0.9994465965688988
aF0.9992621287585316
aF0.9990776609481645
aF0.9992621287585316
aF0.9994465965688988
aF0.9996310643792659
aF0.9996310643792659
aF1.0
aF1.0
aF1.0
aF1.0
aF1.0
aF1.0
aF1.0
aF1.0
aF1.0
aF1.0
aF1.0
aF1.0
aF1.0
aF0.9998155321896329
aF0.9994465965688988
aF0.9987087253274304
aF0.998155321896329
aF0.9964951116030253
aF0.9948349013097214
aF0.9909610772920125
aF0.988009592326139
aF0.9883785279468733
aF0.9870872532743037
aF0.9856115107913669
aF0.9870872532743037
aF0.9881940601365061
aF0.9907766094816455
aF0.9931746910164176
aF0.9970485150341265
aF0.9983397897066962
aF0.9996310643792659
aF1.0
aF1.0
aF1.0
aF1.0
aF1.0
aF1.0
aF1.0
aF0.9998155321896329
aF0.9988931931377975
aF0.9966795794133924
aF0.9937280944475189
aF0.9850581073602657
aF0.9699317469101641
aF0.9546209186496957
aF0.9376498800959233
aF0.9227079874561889
aF0.9038922707987456
aF0.8882125069175429
aF0.8760376314333149
aF0.8710570005534034
aF0.8797269876406567
aF0.8911639918834163
aF0.9061058845231507
aF0.9151448072311381
aF0.9330381848367459
aF0.9536985795978602
aF0.977679394945582
aF0.993912562257886
aF0.9990776609481645
aF1.0
aF1.0
aF1.0
aF1.0
aF1.0
aF1.0
aF0.9987087253274304
aF0.993912562257886
aF0.9835823648773289
aF0.9643977125991514
aF0.9335915882678473
aF0.8887659103486442
aF0.8352702453421877
aF0.7814056447149972
aF0.7299391256225789
aF0.6871425936174138
aF0.6594724220623501
aF0.6447149972329829
aF0.6410256410256411
aF0.6493266924921601
aF0.6745987825124515
aF0.7019000184467811
aF0.7454344216934145
aF0.7987456188895038
aF0.8542704298099981
aF0.9164360819037078
aF0.9747279099797086
aF0.9942814978786202
aF1.0
aF1.0
aF1.0
aF0.9998155321896329
aF1.0
aF0.9990776609481645
aF0.9948349013097214
aF0.9843202361187973
aF0.961446227633278
aF0.924921601180594
aF0.864047223759454
aF0.7766094816454528
aF0.6865891901863125
aF0.6011805939863494
aF0.5297915513742852
aF0.4799852425751706
aF0.4609850581073603
aF0.4548976203652463
aF0.4565578306585501
aF0.47094631986718316
aF0.509131156613171
aF0.5581995941708172
aF0.6196273750230584
aF0.6801328168234643
aF0.7528131341080981
aF0.841726618705036
aF0.9359896698026194
aF0.9859804464121011
aF0.9990776609481645
aF1.0
aF1.0
aF1.0
aF1.0
aF0.9992621287585316
aF0.991698948533481
aF0.973621103117506
aF0.9378343479062904
aF0.8767755026747832
aF0.7878620180778454
aF0.6745987825124515
aF0.5617044825677919
aF0.4764803541781959
aF0.42335362479247374
aF0.40029514849658737
aF0.40619811842833425
aF0.41062534587714444
aF0.42501383508577756
aF0.446227633277993
aF0.48367459878251245
aF0.5360634569267663
aF0.5904814609850582
aF0.648957756871426
aF0.7083563918096292
aF0.7994834901309722
aF0.9055524810920494
aF0.9806308799114555
aF0.9992621287585316
aF1.0
aF1.0
aF1.0
aF1.0
aF0.9990776609481645
aF0.9889319313779745
aF0.9645821804095185
aF0.9162516140933407
aF0.8308430178933776
aF0.7225604132078952
aF0.6035786755211215
aF0.492897989300867
aF0.42907212691385355
aF0.423907028223575
aF0.43571296808706883
aF0.4668880280391072
aF0.49824755580151264
aF0.5187234827522598
aF0.5502674783250323
aF0.5825493451392731
aF0.6161224866260837
aF0.6568898727172109
aF0.7074340527577938
aF0.7507839881940601
aF0.8175613355469471
aF0.9077660948164545
aF0.9808153477218226
aF0.9990776609481645
aF1.0
aF1.0
aF1.0
aF1.0
aF0.9983397897066962
aF0.9861649142224682
aF0.9542519830289614
aF0.8937465412285556
aF0.7838037262497695
aF0.6629773104593248
aF0.5366168603578676
aF0.44087806677734737
aF0.4342372256041321
aF0.4755580151263604
aF0.5384615384615384
aF0.594355285002767
aF0.6345692676627929
aF0.6709094263051097
aF0.6989485334809076
aF0.7216380741560597
aF0.7568714259361742
aF0.7766094816454528
aF0.8074156059767571
aF0.8382217303080612
aF0.8767755026747832
aF0.9359896698026194
aF0.9885629957572404
aF0.9990776609481645
aF1.0
aF1.0
aF1.0
aF1.0
aF0.9963106437926582
aF0.9828444936358606
aF0.9437373178380373
aF0.8629404168972514
aF0.7395314517616676
aF0.592326139088729
aF0.4587714443829552
aF0.39162516140933407
aF0.421877882309537
aF0.5198302896144623
aF0.6199963106437927
aF0.6963659841357683
aF0.7474635676074525
aF0.7926581811473897
aF0.8260468548238332
aF0.8612802066039477
aF0.8828629404168973
aF0.8989116399188342
aF0.9153292750415053
aF0.9273196827153661
aF0.9448441247002398
aF0.971407489393101
aF0.9940970300682531
aF0.9998155321896329
aF1.0
aF1.0
aF1.0
aF1.0
aF0.9948349013097214
aF0.9789706696181516
aF0.9319313779745434
aF0.83766832687696
aF0.6902785463936543
aF0.5058107360265633
aF0.3667220070097768
aF0.3257701531082826
aF0.3945766463752075
aF0.5168788046485888
aF0.634938203283527
aF0.7107544733444014
aF0.7651724774026932
aF0.825493451392732
aF0.8771444382955175
aF0.9204943737317838
aF0.9498247555801512
aF0.9643977125991514
aF0.9730676996864047
aF0.9769415237041136
aF0.9824755580151263
aF0.9902232060505441
aF0.9977863862755949
aF0.9998155321896329
aF1.0
aF1.0
aF1.0
aF0.9988931931377975
aF0.9933591588267847
aF0.9741745065486073
aF0.9195720346799483
aF0.8111049621840989
aF0.6389964951116031
aF0.43921785648404355
aF0.2835270245342188
aF0.2637889688249401
aF0.3440324663346246
aF0.456373362848183
aF0.5565393838775133
aF0.6255303449548054
aF0.6865891901863125
aF0.7533665375391994
aF0.8253089835823649
aF0.8957756871425936
aF0.9435528500276702
aF0.9732521674967718
aF0.987825124515772
aF0.9933591588267847
aF0.9968640472237594
aF0.9988931931377975
aF0.9992621287585316
aF1.0
aF1.0
aF1.0
aF1.0
aF0.9990776609481645
aF0.993912562257886
aF0.9723298284449363
aF0.9151448072311381
aF0.8057553956834532
aF0.6325401217487548
aF0.4231691569821066
aF0.2755949086884339
aF0.2641579044456742
aF0.3239254750046117
aF0.3993728094447519
aF0.47168419110865156
aF0.5305294226157535
aF0.586238701346615
aF0.6463752075262866
aF0.7244050913115662
aF0.8149787862018077
aF0.8970669618151632
aF0.9527762405460247
aF0.9800774764803541
aF0.9933591588267847
aF0.998155321896329
aF0.9998155321896329
aF1.0
aF1.0
aF0.9998155321896329
aF1.0
aF1.0
aF0.9994465965688988
aF0.9955727725511898
aF0.9754657812211769
aF0.92897989300867
aF0.8361925843940232
aF0.6830843017893378
aF0.5041505257332596
aF0.3897804833056632
aF0.3672754104408781
aF0.3971591957203468
aF0.43829551743220807
aF0.4733444014019554
aF0.5076554141302343
aF0.5428887659103486
aF0.5812580704667035
aF0.6406567054049068
aF0.742298468917174
aF0.8363770522043903
aF0.9164360819037078
aF0.9634753735473159
aF0.9869027854639365
aF0.9957572403615569
aF0.9998155321896329
aF1.0
aF1.0
aF1.0
aF1.0
aF1.0
aF0.9990776609481645
aF0.9966795794133924
aF0.9798930086699871
aF0.9444751890795057
aF0.8867367644346061
aF0.7806677734735289
aF0.6709094263051097
aF0.5873455082088176
aF0.5764619073971592
aF0.5818114738978049
aF0.586238701346615
aF0.580151263604501
aF0.5768308430178933
aF0.5591219332226527
aF0.559859804464121
aF0.5928795425198303
aF0.6792104777716288
aF0.7858328721638074
aF0.8830474082272644
aF0.9407858328721638
aF0.9773104593248478
aF0.9933591588267847
aF0.9994465965688988
aF1.0
aF1.0
aF1.0
aF1.0
aF1.0
aF0.9983397897066962
aF0.9920678841542151
aF0.9712230215827338
aF0.9400479616306955
aF0.9121933222652647
aF0.8736395498985428
aF0.8219885629957573
aF0.7913669064748201
aF0.7767939494558199
aF0.7692307692307693
aF0.7410071942446043
aF0.6945213060320974
aF0.6484043534403247
aF0.5995203836930456
aF0.5642870319129312
aF0.5742482936727541
aF0.6460062719055525
aF0.750599520383693
aF0.853901494189264
aF0.9210477771628851
aF0.9680870688064933
aF0.9900387382401771
aF0.9994465965688988
aF1.0
aF1.0
aF1.0
aF1.0
aF1.0
aF0.9983397897066962
aF0.9835823648773289
aF0.941154768492898
aF0.8972514296255304
aF0.88839697472791
aF0.894668880280391
aF0.892639734366353
aF0.8941154768492898
aF0.8891348459693783
aF0.876222099243682
aF0.8365615200147575
aF0.7638812027301236
aF0.6930455635491607
aF0.6092971776425014
aF0.5629957572403615
aF0.5607821435159565
aF0.6284818299206788
aF0.736395498985427
aF0.8339789706696181
aF0.914775871610404
aF0.9607083563918096
aF0.987825124515772
aF0.9994465965688988
aF1.0
aF1.0
aF1.0
aF1.0
aF1.0
aF0.9974174506548608
aF0.971591957203468
aF0.902600996126176
aF0.825493451392732
aF0.815347721822542
aF0.841726618705036
aF0.8751152923814794
aF0.8954067515218594
aF0.9064748201438849
aF0.8895037815901126
aF0.8408042796532005
aF0.7648035417819591
aF0.6740453790813503
aF0.5960154952960708
aF0.5425198302896145
aF0.5563549160671463
aF0.6334624608005903
aF0.7334440140195536
aF0.8313964213244789
aF0.9077660948164545
aF0.9605238885814426
aF0.9874561888950378
aF0.9996310643792659
aF0.9998155321896329
aF1.0
aF1.0
aF1.0
aF0.9996310643792659
aF0.9972329828444937
aF0.9642132447887843
aF0.8730861464674414
aF0.7568714259361742
aF0.7046670356022874
aF0.7223759453975281
aF0.7694152370411363
aF0.8083379450285925
aF0.8242021767201624
aF0.8155321896329091
aF0.7764250138350858
aF0.7028223574986165
aF0.6163069544364509
aF0.5432577015310828
aF0.5222283711492345
aF0.555801512636045
aF0.6493266924921601
aF0.7478325032281867
aF0.8448625714812765
aF0.9164360819037078
aF0.9651355838406198
aF0.9904076738609112
aF0.9994465965688988
aF0.9998155321896329
aF1.0
aF1.0
aF1.0
aF0.9996310643792659
aF0.9961261759822911
aF0.9699317469101641
aF0.8760376314333149
aF0.7245895591219332
aF0.6260837483859066
aF0.5795978601733998
aF0.5952776240546025
aF0.6316177826969194
aF0.6578122117690463
aF0.6620549714074894
aF0.6297731045932484
aF0.5768308430178933
aF0.5168788046485888
aF0.480723113816639
aF0.488839697472791
aF0.5585685297915514
aF0.6703560228740085
aF0.7797454344216934
aF0.8716104039845047
aF0.9311935067330751
aF0.9726987640656706
aF0.9942814978786202
aF0.9992621287585316
aF0.9998155321896329
aF1.0
aF1.0
aF1.0
aF0.9998155321896329
aF0.9970485150341265
aF0.9793396052388859
aF0.9116399188341634
aF0.7753182069728832
aF0.6175982291090205
aF0.5133739162516141
aF0.46319867183176533
aF0.4521306032097399
aF0.4626452684006641
aF0.4641210108836008
aF0.45323741007194246
aF0.43884892086330934
aF0.4139457664637521
aF0.43276148312119533
aF0.492897989300867
aF0.6150156797638812
aF0.7286478509500092
aF0.8349013097214536
aF0.9072126913853532
aF0.9568345323741008
aF0.9848736395498986
aF0.9976019184652278
aF0.9994465965688988
aF0.9998155321896329
aF1.0
aF1.0
aF1.0
aF1.0
aF0.9990776609481645
aF0.987825124515772
aF0.9518539014941892
aF0.8607268031728463
aF0.7258808337945029
aF0.5777531820697288
aF0.4578491053311197
aF0.38627559490868846
aF0.3539937280944475
aF0.3420033204205866
aF0.3444014019553588
aF0.3563918096292197
aF0.3977125991514481
aF0.4668880280391072
aF0.5855008301051466
aF0.7052204390333887
aF0.8190370780298838
aF0.8959601549529607
aF0.951300498063088
aF0.9800774764803541
aF0.9929902232060506
aF0.9985242575170633
aF0.9994465965688988
aF1.0
aF1.0
aF1.0
aF1.0
aF1.0
aF0.9994465965688988
aF0.9955727725511898
aF0.977863862755949
aF0.9332226526471131
aF0.8476295886367828
aF0.7371333702268954
aF0.6192584394023243
aF0.5178011437004243
aF0.4473344401401955
aF0.41449916989485336
aF0.4191108651540306
aF0.46116952591772736
aF0.5393838775133739
aF0.6401033019738056
aF0.7526286662977311
aF0.8492897989300867
aF0.916805017524442
aF0.957387935805202
aF0.9828444936358606
aF0.9933591588267847
aF0.9977863862755949
aF0.9990776609481645
aF0.9996310643792659
aF1.0
aF1.0
aF1.0
aF1.0
aF1.0
aF0.9998155321896329
aF0.9992621287585316
aF0.9955727725511898
aF0.9804464121010884
aF0.9494558199594171
aF0.8981737686773658
aF0.8330566316177827
aF0.7758716104039846
aF0.7236672200700978
aF0.6954436450839329
aF0.7020844862571481
aF0.7411916620549714
aF0.8046485888212507
aF0.8701346615015679
aF0.9145914038000369
aF0.9531451761667589
aF0.9754657812211769
aF0.9893008669987087
aF0.9953883047408227
aF0.997970854085962
aF0.9988931931377975
aF0.9994465965688988
aF1.0
aF1.0
aF1.0
aF1.0
aF1.0
aF1.0
aF0.9998155321896329
aF0.9996310643792659
aF0.9994465965688988
aF0.997970854085962
aF0.9911455451023796
aF0.9809998155321896
aF0.9697472790997971
aF0.9583102748570375
aF0.9494558199594171
aF0.9474266740453791
aF0.9524073049252906
aF0.9621840988747463
aF0.9717764250138351
aF0.9806308799114555
aF0.985795978601734
aF0.9926212875853163
aF0.9964951116030253
aF0.9987087253274304
aF0.9987087253274304
aF0.9987087253274304
aF0.9990776609481645
aF0.9994465965688988
aF1.0
aF1.0
aF1.0
aF1.0
aF1.0
aF1.0
aF1.0
aF1.0
aF1.0
aF0.9998155321896329
aF0.9998155321896329
aF0.9994465965688988
aF0.9985242575170633
aF0.9976019184652278
aF0.9968640472237594
aF0.9964951116030253
aF0.9968640472237594
aF0.997970854085962
aF0.9976019184652278
aF0.997970854085962
aF0.9985242575170633
aF0.9988931931377975
aF0.9994465965688988
aF0.9994465965688988
aF0.9996310643792659
aF0.9998155321896329
aF1.0
aF1.0
aF1.0
aF1.0
aF1.0
aF1.0
aF1.0
aF1.0
aF1.0
aF1.0
aF1.0
aF1.0
aF1.0
aF1.0
aF1.0
aF0.9998155321896329
aF0.9998155321896329
aF0.9998155321896329
aF1.0
aF1.0
aF1.0
aF1.0
aF1.0
aF1.0
aF1.0
aF1.0
aF1.0
aF1.0
aF1.0
aF1.0
aF1.0
aF1.0
aF1.0
aa(lp10
F1.0
aF1.0
aF1.0
aF1.0
aF1.0
aF1.0
aF1.0
aF1.0
aF1.0
aF1.0
aF1.0
aF1.0
aF0.9998310239945928
aF0.9998310239945928
aF1.0
aF1.0
aF1.0
aF1.0
aF1.0
aF1.0
aF1.0
aF1.0
aF1.0
aF1.0
aF1.0
aF1.0
aF1.0
aF1.0
aF1.0
aF1.0
aF1.0
aF1.0
aF1.0
aF1.0
aF0.9994930719837783
aF0.9989861439675566
aF0.9984792159513349
aF0.9974653599188915
aF0.9947617438323758
aF0.9932409597837107
aF0.992734031767489
aF0.9920581277458601
aF0.9922271037512673
aF0.9935789117945252
aF0.9932409597837107
aF0.9939168638053396
aF0.9957755998648192
aF0.9966204798918553
aF0.9974653599188915
aF0.9991551199729638
aF0.999324095978371
aF0.9998310239945928
aF1.0
aF1.0
aF1.0
aF1.0
aF1.0
aF1.0
aF1.0
aF1.0
aF0.9996620479891856
aF1.0
aF0.9986481919567421
aF0.9952686718485975
aF0.9908752957080095
aF0.983271375464684
aF0.9702602230483272
aF0.9530246704967894
aF0.929368029739777
aF0.9060493409935789
aF0.8761405880364989
aF0.8546806353497803
aF0.8506252112200068
aF0.8589050354849611
aF0.8774923960797567
aF0.9117945251774248
aF0.9484623183507942
aF0.9726258871240284
aF0.9874957755998648
aF0.9959445758702264
aF0.9984792159513349
aF0.9996620479891856
aF1.0
aF1.0
aF1.0
aF1.0
aF0.9998310239945928
aF0.9998310239945928
aF1.0
aF0.9989861439675566
aF0.9966204798918553
aF0.9901993916863805
aF0.9805677593781683
aF0.9635011828320379
aF0.9351132139236229
aF0.9006421088205475
aF0.857384251436296
aF0.7973977695167286
aF0.7262588712402839
aF0.6694829334234539
aF0.6453193646502197
aF0.6566407570125042
aF0.7056437985806016
aF0.7879351132139236
aF0.8695505238256168
aF0.9325785738425144
aF0.9680635349780331
aF0.9886786076377154
aF0.9952686718485975
aF0.999324095978371
aF0.9998310239945928
aF1.0
aF1.0
aF1.0
aF1.0
aF1.0
aF0.9996620479891856
aF0.997803311929706
aF0.9947617438323758
aF0.9858060155457925
aF0.9690773910104765
aF0.9401824940858398
aF0.9043595809395066
aF0.8567083474146672
aF0.787428185197702
aF0.6966880702940182
aF0.6125380196012167
aF0.5525515376816492
aF0.5376816492058127
aF0.574180466373775
aF0.6595133491044272
aF0.7581953362622508
aF0.8585670834741467
aF0.9207502534640081
aF0.9631632308212233
aF0.9851301115241635
aF0.9944237918215614
aF0.9988171679621494
aF1.0
aF1.0
aF1.0
aF1.0
aF1.0
aF1.0
aF0.9991551199729638
aF0.9967894558972626
aF0.9918891517404529
aF0.98107468739439
aF0.9560662385941197
aF0.9183845893883069
aF0.8683676917877662
aF0.8070294018249409
aF0.7063197026022305
aF0.6127069956066239
aF0.5287259209192294
aF0.4994930719837783
aF0.5243325447786414
aF0.6052720513687057
aF0.7134166948293342
aF0.8163230821223386
aF0.8947279486312943
aF0.9457587022642785
aF0.9741466711726935
aF0.9866508955728287
aF0.9935789117945252
aF0.9984792159513349
aF0.9998310239945928
aF1.0
aF1.0
aF1.0
aF1.0
aF1.0
aF0.9991551199729638
aF0.9962825278810409
aF0.9900304156809733
aF0.9727948631294356
aF0.9415343021290977
aF0.8920243325447786
aF0.8284893545116594
aF0.7348766475160528
aF0.6250422440013518
aF0.5322744170327813
aF0.4852990875295708
aF0.5025346400811085
aF0.5868536667793174
aF0.7068266306184522
aF0.8110848259547144
aF0.8969246367015884
aF0.9450827982426495
aF0.9702602230483272
aF0.9844542075025347
aF0.9920581277458601
aF0.9967894558972626
aF0.9984792159513349
aF0.9998310239945928
aF0.9998310239945928
aF1.0
aF1.0
aF1.0
aF1.0
aF0.999324095978371
aF0.9957755998648192
aF0.9868198715782359
aF0.9604596147347076
aF0.919905373436972
aF0.8563703954038526
aF0.7717134166948293
aF0.6556269009800608
aF0.5510307536329841
aF0.47887799932409597
aF0.4780331192970598
aF0.5579587698546806
aF0.6948293342345387
aF0.8159851301115242
aF0.9060493409935789
aF0.9525177424805678
aF0.9729638391348429
aF0.983271375464684
aF0.9898614396755661
aF0.9954376478540047
aF0.9976343359242987
aF0.9989861439675566
aF0.9994930719837783
aF0.9998310239945928
aF1.0
aF1.0
aF1.0
aF1.0
aF0.9994930719837783
aF0.9952686718485975
aF0.9814126394052045
aF0.9464346062859074
aF0.8913484285231497
aF0.8119297059817506
aF0.7034471105103075
aF0.578573842514363
aF0.4798918553565394
aF0.4516728624535316
aF0.5163906725245015
aF0.6603582291314634
aF0.8038188577222034
aF0.9041906049340993
aF0.9565731666103413
aF0.9746535991889151
aF0.9798918553565393
aF0.9849611355187563
aF0.9917201757350457
aF0.9957755998648192
aF0.9988171679621494
aF0.9996620479891856
aF0.9996620479891856
aF1.0
aF1.0
aF1.0
aF1.0
aF1.0
aF0.999324095978371
aF0.9935789117945252
aF0.9727948631294356
aF0.9286921257181481
aF0.855187563366002
aF0.7585332882730652
aF0.6243663399797229
aF0.4994930719837783
aF0.4249746535991889
aF0.4558972625887124
aF0.6003717472118959
aF0.7703616086515714
aF0.8871240283879689
aF0.9486312943562014
aF0.9635011828320379
aF0.9614734707671511
aF0.9631632308212233
aF0.9702602230483272
aF0.9837783034809057
aF0.9922271037512673
aF0.9979722879351132
aF0.999324095978371
aF0.9996620479891856
aF1.0
aF1.0
aF1.0
aF1.0
aF1.0
aF0.999324095978371
aF0.9901993916863805
aF0.9611355187563366
aF0.9021628928692126
aF0.8175059141601893
aF0.6911118621155796
aF0.5422440013518081
aF0.42615748563703953
aF0.40621831699898614
aF0.5147009124704292
aF0.7090233186887462
aF0.8480905711388983
aF0.914160189253126
aF0.9210882054748226
aF0.9109496451503887
aF0.9043595809395066
aF0.909766813112538
aF0.931564717810071
aF0.9564041906049341
aF0.9812436633997972
aF0.993409935789118
aF0.9989861439675566
aF0.9996620479891856
aF1.0
aF1.0
aF1.0
aF1.0
aF1.0
aF0.9989861439675566
aF0.9861439675566069
aF0.9481243663399798
aF0.879858060155458
aF0.7664751605272051
aF0.6054410273741129
aF0.45555931057789795
aF0.3764785400473133
aF0.43545116593443733
aF0.604765123352484
aF0.7837107130787428
aF0.8611017235552552
aF0.8497803311929706
aF0.8110848259547144
aF0.7830348090571139
aF0.7879351132139236
aF0.8197026022304833
aF0.8626225076039202
aF0.9116255491720175
aF0.9525177424805678
aF0.9846231835079419
aF0.9976343359242987
aF0.9998310239945928
aF0.9998310239945928
aF1.0
aF1.0
aF1.0
aF1.0
aF0.9989861439675566
aF0.981750591416019
aF0.9346062859074011
aF0.8484285231497127
aF0.7071645826292666
aF0.5285569449138222
aF0.3796890841500507
aF0.3589050354849611
aF0.48698884758364314
aF0.6694829334234539
aF0.7708685366677932
aF0.7470429199053734
aF0.6679621493747888
aF0.6127069956066239
aF0.599019939168638
aF0.6257181480229808
aF0.6814802298073673
aF0.758364312267658
aF0.8494423791821561
aF0.9195674214261574
aF0.9668807029401825
aF0.9952686718485975
aF0.9996620479891856
aF0.9998310239945928
aF1.0
aF1.0
aF1.0
aF1.0
aF0.9989861439675566
aF0.9787090233186887
aF0.9195674214261574
aF0.8110848259547144
aF0.6358567083474147
aF0.4474484623183508
aF0.3298411625549172
aF0.37309901993916866
aF0.5425819533626225
aF0.6647516052720513
aF0.6416018925312605
aF0.5368367691787767
aF0.4491382223724231
aF0.4172017573504562
aF0.4349442379182156
aF0.48732679959445757
aF0.5679283541737074
aF0.6677931733693816
aF0.781683001013856
aF0.8790131801284218
aF0.9457587022642785
aF0.9915511997296383
aF0.9996620479891856
aF1.0
aF1.0
aF1.0
aF1.0
aF1.0
aF0.9994930719837783
aF0.9746535991889151
aF0.9038526529232849
aF0.7688408246029064
aF0.574180466373775
aF0.3768164920581277
aF0.3073673538357553
aF0.4018249408583981
aF0.5503548496113552
aF0.5753632984116256
aF0.46924636701588374
aF0.3560324433930382
aF0.31784386617100374
aF0.34690773910104766
aF0.39472794863129435
aF0.428692125718148
aF0.49391686380533967
aF0.6051030753632984
aF0.7309901993916864
aF0.8506252112200068
aF0.9322406218316999
aF0.9849611355187563
aF0.9996620479891856
aF1.0
aF1.0
aF1.0
aF1.0
aF1.0
aF0.999324095978371
aF0.9702602230483272
aF0.8876309564041907
aF0.7328489354511659
aF0.521122000675904
aF0.3310239945927678
aF0.29537005745184186
aF0.41314633322068267
aF0.5101385603244339
aF0.46704967894558974
aF0.3595809395065901
aF0.3350794187225414
aF0.3820547482257519
aF0.4400135180804326
aF0.45302467049678946
aF0.4371409259885096
aF0.4602906387293004
aF0.5608313619466035
aF0.7086853666779317
aF0.8415005069280163
aF0.9337614058803649
aF0.9820885434268334
aF0.9996620479891856
aF1.0
aF1.0
aF1.0
aF1.0
aF1.0
aF0.9981412639405205
aF0.9690773910104765
aF0.8800270361608652
aF0.7063197026022305
aF0.488340655626901
aF0.3105778979384927
aF0.2874281851977019
aF0.3881378844204123
aF0.4509969584319027
aF0.4158499493071984
aF0.39236228455559313
aF0.45234876647516054
aF0.5434268333896587
aF0.5603244339303819
aF0.49577559986481917
aF0.41770868536667793
aF0.44035147009124703
aF0.5650557620817844
aF0.7194998310239946
aF0.8572152754308888
aF0.9389996620479892
aF0.9837783034809057
aF0.9996620479891856
aF1.0
aF1.0
aF1.0
aF1.0
aF1.0
aF0.997803311929706
aF0.9702602230483272
aF0.8859411963501183
aF0.7127407908077054
aF0.48614396755660694
aF0.3039878337276107
aF0.2581953362622508
aF0.3276444744846232
aF0.4112875971612031
aF0.4290300777289625
aF0.4765123352483947
aF0.5680973301791146
aF0.6074687394389997
aF0.5444406894221021
aF0.41990537343697193
aF0.35806015545792497
aF0.4327475498479216
aF0.60256843528219
aF0.7647854004731328
aF0.8893207164582629
aF0.9589388306860426
aF0.9891855356539372
aF0.9994930719837783
aF1.0
aF1.0
aF1.0
aF1.0
aF0.9998310239945928
aF0.9969584319026699
aF0.9746535991889151
aF0.9021628928692126
aF0.7412977357215276
aF0.5250084488002703
aF0.3104089219330855
aF0.21054410273741128
aF0.2389320716458263
aF0.34065562690098006
aF0.4165258533288273
aF0.47820209530246705
aF0.5030415680973301
aF0.4602906387293004
aF0.3612706995606624
aF0.29215951334910445
aF0.3420074349442379
aF0.502196688070294
aF0.6811422777965529
aF0.8342345386955052
aF0.9280162216965191
aF0.9790469753295032
aF0.9950996958431902
aF0.9998310239945928
aF1.0
aF1.0
aF1.0
aF1.0
aF1.0
aF0.9974653599188915
aF0.983271375464684
aF0.9313957418046638
aF0.804156809733018
aF0.6029063872930044
aF0.3732679959445759
aF0.18992903007772896
aF0.15579587698546807
aF0.20496789455897263
aF0.28033119297059816
aF0.3159851301115242
aF0.29182156133828996
aF0.24062183169989862
aF0.2179790469753295
aF0.2875971612031092
aF0.4486312943562014
aF0.6345049003041568
aF0.7995944575870226
aF0.9062183169989861
aF0.9672186549509969
aF0.9915511997296383
aF0.9986481919567421
aF0.9998310239945928
aF1.0
aF1.0
aF1.0
aF1.0
aF1.0
aF0.9984792159513349
aF0.9920581277458601
aF0.964346062859074
aF0.885772220344711
aF0.736566407570125
aF0.5185873605947955
aF0.29705981750591415
aF0.15089557282865834
aF0.11372085163906726
aF0.12183169989861439
aF0.13315309226089894
aF0.1454883406556269
aF0.18401486988847585
aF0.2919905373436972
aF0.4567421426157486
aF0.6478540047313281
aF0.8028050016897601
aF0.9084150050692802
aF0.9662047989185536
aF0.9896924636701588
aF0.9981412639405205
aF0.9991551199729638
aF0.9998310239945928
aF1.0
aF1.0
aF1.0
aF1.0
aF1.0
aF0.9998310239945928
aF0.9976343359242987
aF0.9869888475836431
aF0.95420750253464
aF0.8758026360256843
aF0.736566407570125
aF0.5461304494761744
aF0.3540047313281514
aF0.23470767151064548
aF0.18164920581277458
aF0.19770192632646164
aF0.2793173369381548
aF0.41314633322068267
aF0.5721527543088881
aF0.7363974315647178
aF0.8570462994254816
aF0.9351132139236229
aF0.9746535991889151
aF0.990537343697195
aF0.997803311929706
aF0.999324095978371
aF0.9998310239945928
aF0.9998310239945928
aF1.0
aF1.0
aF1.0
aF1.0
aF1.0
aF1.0
aF0.9998310239945928
aF0.999324095978371
aF0.9907063197026023
aF0.9721189591078067
aF0.9384927340317675
aF0.8644812436633998
aF0.7857384251436296
aF0.7098681987157823
aF0.6684690773910105
aF0.6755660696181143
aF0.7279486312943562
aF0.8055086177762758
aF0.8774923960797567
aF0.935958093950659
aF0.971612031091585
aF0.9868198715782359
aF0.9952686718485975
aF0.9983102399459277
aF0.9996620479891856
aF1.0
aF1.0
aF0.9998310239945928
aF1.0
aF1.0
aF1.0
aF1.0
aF1.0
aF1.0
aF1.0
aF1.0
aF0.9998310239945928
aF0.9981412639405205
aF0.994930719837783
aF0.990537343697195
aF0.9841162554917202
aF0.9756674552213586
aF0.9678945589726259
aF0.966542750929368
aF0.9711051030753634
aF0.9802298073673539
aF0.9881716796214938
aF0.9932409597837107
aF0.9961135518756337
aF0.9979722879351132
aF0.9991551199729638
aF0.9998310239945928
aF1.0
aF1.0
aF1.0
aF1.0
aF1.0
aF1.0
aF1.0
aF1.0
aF1.0
aF1.0
aF1.0
aF1.0
aF1.0
aF1.0
aF1.0
aF1.0
aF0.9996620479891856
aF0.999324095978371
aF0.9991551199729638
aF0.9988171679621494
aF0.9986481919567421
aF0.9986481919567421
aF0.9991551199729638
aF0.9994930719837783
aF0.9998310239945928
aF1.0
aF1.0
aF1.0
aF1.0
aF1.0
aF1.0
aF1.0
aF1.0
aF1.0
aF1.0
aF1.0
aF1.0
aF1.0
aF1.0
aF1.0
aF1.0
aF1.0
aF1.0
aF1.0
aF1.0
aF0.9998310239945928
aF1.0
aF1.0
aF1.0
aF1.0
aF1.0
aF1.0
aF1.0
aF1.0
aF1.0
aF1.0
aF1.0
aF1.0
aF1.0
aF1.0
aF1.0
aF1.0
aF1.0
aF1.0
aF1.0
aF1.0
aF1.0
aF1.0
aF1.0
aF1.0
aF1.0
aF1.0
aF1.0
aF1.0
aF1.0
aF1.0
aF1.0
aF1.0
aF1.0
aF1.0
aF1.0
aF1.0
aF1.0
aF1.0
aF1.0
aF1.0
aF1.0
aF1.0
aF1.0
aF1.0
aF1.0
aF1.0
aF1.0
aF1.0
aF1.0
aF1.0
aF1.0
aF1.0
aF1.0
aF1.0
aF1.0
aF1.0
aF1.0
aF1.0
aF1.0
aF1.0
aF1.0
aF1.0
aF1.0
aF1.0
aF1.0
aF1.0
aF1.0
aF1.0
aF1.0
aF1.0
aF1.0
aa(lp11
F1.0
aF1.0
aF1.0
aF1.0
aF1.0
aF1.0
aF1.0
aF1.0
aF1.0
aF1.0
aF1.0
aF1.0
aF1.0
aF1.0
aF1.0
aF1.0
aF1.0
aF1.0
aF1.0
aF1.0
aF1.0
aF1.0
aF1.0
aF1.0
aF1.0
aF1.0
aF1.0
aF1.0
aF1.0
aF1.0
aF1.0
aF1.0
aF1.0
aF1.0
aF1.0
aF1.0
aF1.0
aF1.0
aF1.0
aF1.0
aF1.0
aF1.0
aF1.0
aF1.0
aF1.0
aF1.0
aF1.0
aF1.0
aF1.0
aF1.0
aF1.0
aF1.0
aF1.0
aF1.0
aF1.0
aF1.0
aF1.0
aF1.0
aF1.0
aF1.0
aF1.0
aF1.0
aF1.0
aF1.0
aF1.0
aF1.0
aF1.0
aF1.0
aF1.0
aF1.0
aF1.0
aF1.0
aF1.0
aF1.0
aF1.0
aF1.0
aF1.0
aF1.0
aF1.0
aF1.0
aF1.0
aF1.0
aF1.0
aF1.0
aF1.0
aF1.0
aF1.0
aF1.0
aF1.0
aF1.0
aF1.0
aF1.0
aF1.0
aF1.0
aF1.0
aF1.0
aF1.0
aF1.0
aF1.0
aF1.0
aF1.0
aF1.0
aF1.0
aF1.0
aF1.0
aF1.0
aF1.0
aF1.0
aF1.0
aF1.0
aF1.0
aF1.0
aF1.0
aF1.0
aF1.0
aF0.9998403830806065
aF0.9998403830806065
aF0.9998403830806065
aF1.0
aF1.0
aF1.0
aF1.0
aF1.0
aF0.999680766161213
aF0.999680766161213
aF0.9995211492418197
aF0.9995211492418197
aF0.9998403830806065
aF0.9998403830806065
aF1.0
aF1.0
aF1.0
aF1.0
aF0.9998403830806065
aF1.0
aF1.0
aF1.0
aF1.0
aF1.0
aF1.0
aF1.0
aF1.0
aF1.0
aF0.9998403830806065
aF0.9995211492418197
aF0.9987230646448524
aF0.9971268954509178
aF0.9956903431763767
aF0.9923383878691141
aF0.9894652833200319
aF0.9897845171588189
aF0.9885075818036712
aF0.9875498802873105
aF0.9885075818036712
aF0.9886671987230646
aF0.9901037509976057
aF0.9913806863527533
aF0.994413407821229
aF0.9960095770151636
aF0.9987230646448524
aF0.9992019154030327
aF0.9995211492418197
aF0.999680766161213
aF1.0
aF1.0
aF1.0
aF1.0
aF1.0
aF1.0
aF1.0
aF0.9993615323224262
aF0.9992019154030327
aF0.9948922585794094
aF0.9867517956903432
aF0.9728651237031125
aF0.9584996009577015
aF0.9379090183559458
aF0.9195530726256983
aF0.8962490023942538
aF0.8822027134876297
aF0.8710295291300878
aF0.8708699122106943
aF0.8710295291300878
aF0.8707102952913008
aF0.8747007182761373
aF0.8873104549082202
aF0.9080606544293696
aF0.9332801276935355
aF0.9596169193934557
aF0.9746209098164406
aF0.9881883479648843
aF0.9969672785315243
aF0.9998403830806065
aF1.0
aF1.0
aF1.0
aF1.0
aF0.999680766161213
aF0.996488427773344
aF0.9880287310454908
aF0.9682362330407023
aF0.9312051077414206
aF0.8804469273743016
aF0.819632881085395
aF0.7541899441340782
aF0.6889066241021549
aF0.6282521947326417
aF0.583559457302474
aF0.5482841181165203
aF0.5276935355147646
aF0.5126895450917798
aF0.5015163607342378
aF0.497366320830008
aF0.5171588188347965
aF0.5758978451715882
aF0.659537110933759
aF0.7661612130885874
aF0.8624102154828411
aF0.9379090183559458
aF0.9735035913806863
aF0.9953711093375898
aF0.9992019154030327
aF1.0
aF1.0
aF0.9998403830806065
aF0.9979249800478851
aF0.9878691141260973
aF0.9623304070231444
aF0.9233838786911412
aF0.8512370311252992
aF0.7629688747007183
aF0.6544293695131684
aF0.5462090981644054
aF0.44437350359138067
aF0.35147645650438947
aF0.2927374301675978
aF0.250438946528332
aF0.2324022346368715
aF0.2245810055865922
aF0.2166001596169194
aF0.21276935355147647
aF0.22761372705506783
aF0.3024740622505986
aF0.42968874700718274
aF0.6023942537909018
aF0.7634477254588986
aF0.8849162011173184
aF0.955147645650439
aF0.9889864325618516
aF0.9987230646448524
aF1.0
aF1.0
aF0.9998403830806065
aF0.9969672785315243
aF0.9787709497206704
aF0.9439744612928971
aF0.8890662410215483
aF0.8027134876296887
aF0.698802873104549
aF0.5696727853152435
aF0.4493216280925778
aF0.3382282521947326
aF0.264804469273743
aF0.22314445331205107
aF0.2223463687150838
aF0.24102154828411812
aF0.24501197126895452
aF0.23447725458898644
aF0.20063846767757382
aF0.1736632083000798
aF0.21069433359936154
aF0.3343974461292897
aF0.5275339185953711
aF0.7241819632881086
aF0.8668794892258579
aF0.9545091779728652
aF0.9904229848363927
aF0.9984038308060654
aF0.9998403830806065
aF0.9998403830806065
aF0.999680766161213
aF0.9958499600957702
aF0.9798882681564246
aF0.9450917797286512
aF0.8892258579409418
aF0.8105347166799681
aF0.7133280127693535
aF0.5996807661612131
aF0.4976855546687949
aF0.42649640861931365
aF0.3877094972067039
aF0.4057462090981644
aF0.4533120510774142
aF0.4928970470869912
aF0.5158818834796488
aF0.4850758180367119
aF0.3862729449321628
aF0.26225059856344773
aF0.225219473264166
aF0.32673583399840384
aF0.5374301675977654
aF0.7350359138068635
aF0.8799680766161213
aF0.964245810055866
aF0.9942537909018356
aF0.9988826815642458
aF0.9998403830806065
aF1.0
aF0.999680766161213
aF0.996488427773344
aF0.9829209896249003
aF0.9599361532322426
aF0.9169992019154031
aF0.8579409417398244
aF0.7790901835594572
aF0.6897047086991221
aF0.610853950518755
aF0.5715881883479649
aF0.5915403032721468
aF0.6518754988028731
aF0.7268954509177973
aF0.7682362330407023
aF0.7814844373503591
aF0.7184357541899441
aF0.5388667198723065
aF0.3318435754189944
aF0.24628890662410216
aF0.3696727853152434
aF0.5755786113328013
aF0.7893056664006385
aF0.9114126097366321
aF0.9773343974461293
aF0.9969672785315243
aF0.9998403830806065
aF1.0
aF1.0
aF0.9998403830806065
aF0.9984038308060654
aF0.9910614525139665
aF0.9752593774940144
aF0.9481245011971269
aF0.9050279329608939
aF0.8515562649640862
aF0.7723862729449321
aF0.7128491620111732
aF0.7056664006384676
aF0.7554668794892259
aF0.8272944932162809
aF0.8936951316839585
aF0.9211492418196329
aF0.9024740622505986
aF0.7875498802873104
aF0.5345570630486831
aF0.3056664006384677
aF0.26193136472466083
aF0.4241021548284118
aF0.6612928970470869
aF0.8488427773343974
aF0.9452513966480447
aF0.9881883479648843
aF0.9985634477254589
aF0.9995211492418197
aF0.9998403830806065
aF1.0
aF1.0
aF0.999680766161213
aF0.9953711093375898
aF0.9867517956903432
aF0.9648842777334398
aF0.9326416600159617
aF0.8922585794094174
aF0.8347964884277733
aF0.8006384676775739
aF0.8092577813248204
aF0.8601755786113328
aF0.9272146847565842
aF0.9608938547486033
aF0.9647246608140463
aF0.9136472466081405
aF0.7328012769353551
aF0.4407023144453312
aF0.25123703112529927
aF0.29561053471668
aF0.502952913008779
aF0.7470071827613727
aF0.8992817238627294
aF0.9663208300079809
aF0.9897845171588189
aF0.996488427773344
aF0.9990422984836392
aF1.0
aF1.0
aF1.0
aF0.9998403830806065
aF0.9984038308060654
aF0.9921787709497206
aF0.9781324820430966
aF0.9522745411013568
aF0.9224261771747805
aF0.8877893056664007
aF0.8692737430167597
aF0.8869912210694334
aF0.920830007980846
aF0.9527533918595371
aF0.9647246608140463
aF0.9497206703910615
aF0.8550678371907422
aF0.5974461292897048
aF0.3101356743814844
aF0.21292897047086992
aF0.3462090981644054
aF0.592657621707901
aF0.8106943335993615
aF0.9245011971268955
aF0.9680766161213089
aF0.9859537110933759
aF0.9958499600957702
aF0.9985634477254589
aF1.0
aF1.0
aF1.0
aF1.0
aF0.9992019154030327
aF0.9960095770151636
aF0.9861133280127694
aF0.967757382282522
aF0.9450917797286512
aF0.9237031125299282
aF0.9174780526735834
aF0.9232242617717478
aF0.9356743814844374
aF0.938707102952913
aF0.9332801276935355
aF0.8922585794094174
aF0.7292897047086991
aF0.43766959297685554
aF0.23016759776536314
aF0.23335993615323225
aF0.43591380686352754
aF0.6866719872306465
aF0.8534716679968076
aF0.9310454908220271
aF0.9661612130885874
aF0.9848363926576217
aF0.994413407821229
aF0.9992019154030327
aF1.0
aF1.0
aF1.0
aF1.0
aF0.9998403830806065
aF0.9972865123703113
aF0.99122106943336
aF0.9797286512370311
aF0.9636073423782922
aF0.9524341580207502
aF0.9430167597765363
aF0.9337589784517158
aF0.9286512370311253
aF0.9197126895450918
aF0.8887470071827613
aF0.8022346368715084
aF0.5698324022346368
aF0.3088587390263368
aF0.20494812450119712
aF0.3189146049481245
aF0.5632881085395052
aF0.7696727853152434
aF0.8952913008778931
aF0.9482841181165204
aF0.9707901037509976
aF0.9862729449321628
aF0.9960095770151636
aF0.9993615323224262
aF1.0
aF1.0
aF1.0
aF1.0
aF1.0
aF0.9987230646448524
aF0.9950518754988029
aF0.9880287310454908
aF0.9803671189146049
aF0.9709497206703911
aF0.9607342378292099
aF0.9479648842777334
aF0.936632083000798
aF0.9122106943335994
aF0.8549082202713487
aF0.6897047086991221
aF0.4335195530726257
aF0.2544293695131684
aF0.2587390263367917
aF0.4601755786113328
aF0.6834796488427773
aF0.8493216280925778
aF0.9310454908220271
aF0.9664804469273743
aF0.9833998403830806
aF0.9926576217079011
aF0.9966480446927374
aF0.9993615323224262
aF0.9998403830806065
aF1.0
aF1.0
aF1.0
aF1.0
aF0.9993615323224262
aF0.9974461292897047
aF0.994732641660016
aF0.99122106943336
aF0.9854748603351955
aF0.9771747805267358
aF0.9653631284916201
aF0.94780526735834
aF0.9055067837190742
aF0.788826815642458
aF0.5650438946528332
aF0.35466879489225855
aF0.2657621707901037
aF0.37462090981644053
aF0.5901037509976057
aF0.7811652035115723
aF0.9058260175578612
aF0.9580207501995212
aF0.9806863527533919
aF0.990901835594573
aF0.9969672785315243
aF0.9987230646448524
aF1.0
aF1.0
aF1.0
aF1.0
aF1.0
aF0.9998403830806065
aF0.999680766161213
aF0.998244213886672
aF0.9977653631284916
aF0.996169193934557
aF0.9929768555466879
aF0.9870710295291301
aF0.9750997605746209
aF0.9411013567438149
aF0.8592178770949721
aF0.6897047086991221
aF0.4863527533918595
aF0.3272146847565842
aF0.34477254588986433
aF0.5086991221069433
aF0.7000798084596968
aF0.8544293695131684
aF0.9374301675977653
aF0.9741420590582601
aF0.9907422186751795
aF0.996169193934557
aF0.9988826815642458
aF0.9990422984836392
aF0.999680766161213
aF1.0
aF1.0
aF1.0
aF1.0
aF1.0
aF0.9998403830806065
aF0.999680766161213
aF0.9992019154030327
aF0.9980845969672786
aF0.994413407821229
aF0.985634477254589
aF0.9626496408619314
aF0.8997605746209099
aF0.7776536312849162
aF0.5979249800478851
aF0.42601755786113327
aF0.3580207501995212
aF0.44740622505985633
aF0.6173982442138867
aF0.7773343974461293
aF0.8938547486033519
aF0.9561053471667997
aF0.9830806065442937
aF0.9952114924181963
aF0.9976057462090981
aF0.9993615323224262
aF0.9992019154030327
aF0.999680766161213
aF1.0
aF1.0
aF1.0
aF1.0
aF1.0
aF1.0
aF0.999680766161213
aF0.9985634477254589
aF0.9948922585794094
aF0.9886671987230646
aF0.9699920191540303
aF0.9189146049481245
aF0.8293695131683958
aF0.6818834796488428
aF0.524341580207502
aF0.4244213886671987
aF0.432561851556265
aF0.5441340782122905
aF0.6906624102154828
aF0.8220271348762969
aF0.9157222665602553
aF0.9661612130885874
aF0.987390263367917
aF0.9955307262569832
aF0.998244213886672
aF0.9998403830806065
aF0.999680766161213
aF0.999680766161213
aF1.0
aF1.0
aF1.0
aF1.0
aF1.0
aF1.0
aF0.9988826815642458
aF0.9950518754988029
aF0.9894652833200319
aF0.9752593774940144
aF0.9340782122905028
aF0.8636871508379889
aF0.7486033519553073
aF0.614046288906624
aF0.5021548284118117
aF0.4667198723064645
aF0.5112529928172386
aF0.6175578611332802
aF0.7428571428571429
aF0.8512370311252992
aF0.9291300877893056
aF0.9693535514764565
aF0.9881883479648843
aF0.9960095770151636
aF0.9984038308060654
aF1.0
aF0.999680766161213
aF0.999680766161213
aF1.0
aF1.0
aF1.0
aF1.0
aF1.0
aF1.0
aF0.9966480446927374
aF0.9913806863527533
aF0.9805267358339984
aF0.9484437350359138
aF0.8933758978451716
aF0.8027134876296887
aF0.691779728651237
aF0.5811652035115722
aF0.5147645650438947
aF0.5177972865123703
aF0.5763766959297686
aF0.6759776536312849
aF0.780047885075818
aF0.8695929768555467
aF0.9363128491620112
aF0.9715881883479649
aF0.9883479648842778
aF0.9958499600957702
aF0.9984038308060654
aF0.999680766161213
aF0.9995211492418197
aF0.9998403830806065
aF1.0
aF1.0
aF1.0
aF1.0
aF0.9998403830806065
aF0.9993615323224262
aF0.9956903431763767
aF0.9872306464485235
aF0.9672785315243416
aF0.9238627294493216
aF0.8588986432561851
aF0.7703112529928172
aF0.6657621707901038
aF0.5948922585794094
aF0.5599361532322427
aF0.5741420590582602
aF0.639584996009577
aF0.7237031125299281
aF0.8090981644054269
aF0.8841181165203511
aF0.9436552274541101
aF0.972705506783719
aF0.9888268156424581
aF0.9960095770151636
aF0.9985634477254589
aF1.0
aF0.9998403830806065
aF1.0
aF1.0
aF1.0
aF1.0
aF1.0
aF1.0
aF0.9995211492418197
aF0.9966480446927374
aF0.9883479648842778
aF0.9653631284916201
aF0.9206703910614525
aF0.8553870710295292
aF0.7802075019952115
aF0.7080606544293695
aF0.6568236233040702
aF0.639584996009577
aF0.6641660015961692
aF0.7109337589784517
aF0.7781324820430966
aF0.8472466081404629
aF0.9048683160415004
aF0.9494014365522745
aF0.9755786113328013
aF0.9904229848363927
aF0.9950518754988029
aF0.998244213886672
aF1.0
aF0.9998403830806065
aF1.0
aF1.0
aF1.0
aF1.0
aF1.0
aF1.0
aF1.0
aF0.999680766161213
aF0.9950518754988029
aF0.9811652035115722
aF0.9565841979249801
aF0.9176376695929769
aF0.8812450119712689
aF0.8400638467677574
aF0.8092577813248204
aF0.8012769353551477
aF0.8092577813248204
aF0.834317637669593
aF0.8726256983240224
aF0.9093375897845172
aF0.9403032721468476
aF0.9672785315243416
aF0.9841979249800479
aF0.994413407821229
aF0.9976057462090981
aF0.9988826815642458
aF0.9998403830806065
aF1.0
aF1.0
aF1.0
aF1.0
aF1.0
aF1.0
aF1.0
aF1.0
aF1.0
aF0.9993615323224262
aF0.9980845969672786
aF0.9960095770151636
aF0.9952114924181963
aF0.9924980047885076
aF0.9853152434158021
aF0.9827613727055068
aF0.97829209896249
aF0.9762170790103751
aF0.9703112529928173
aF0.9749401436552274
aF0.9794094173982442
aF0.9857940941739824
aF0.9928172386272945
aF0.9974461292897047
aF0.9988826815642458
aF0.999680766161213
aF0.9995211492418197
aF1.0
aF1.0
aF1.0
aF1.0
aF1.0
aa(lp12
F1.0
aF1.0
aF1.0
aF1.0
aF1.0
aF1.0
aF1.0
aF1.0
aF1.0
aF1.0
aF1.0
aF1.0
aF1.0
aF1.0
aF1.0
aF1.0
aF1.0
aF1.0
aF1.0
aF1.0
aF1.0
aF1.0
aF1.0
aF1.0
aF1.0
aF1.0
aF1.0
aF1.0
aF1.0
aF1.0
aF1.0
aF1.0
aF1.0
aF1.0
aF1.0
aF1.0
aF1.0
aF1.0
aF1.0
aF1.0
aF1.0
aF1.0
aF1.0
aF1.0
aF1.0
aF1.0
aF1.0
aF1.0
aF1.0
aF1.0
aF1.0
aF1.0
aF1.0
aF1.0
aF1.0
aF1.0
aF1.0
aF1.0
aF1.0
aF1.0
aF1.0
aF1.0
aF1.0
aF1.0
aF1.0
aF1.0
aF1.0
aF1.0
aF1.0
aF1.0
aF1.0
aF1.0
aF1.0
aF1.0
aF0.9998290890446078
aF1.0
aF1.0
aF1.0
aF1.0
aF1.0
aF1.0
aF1.0
aF1.0
aF1.0
aF1.0
aF1.0
aF1.0
aF1.0
aF1.0
aF1.0
aF1.0
aF1.0
aF1.0
aF0.9998290890446078
aF0.9996581780892155
aF0.9993163561784311
aF0.9989745342676466
aF0.9986327123568621
aF0.9976072466245086
aF0.9967526918475474
aF0.9958981370705863
aF0.9962399589813707
aF0.9967526918475474
aF0.9981199794906853
aF0.9986327123568621
aF0.9982908904460776
aF0.9988036233122544
aF0.9994872671338233
aF0.9998290890446078
aF1.0
aF1.0
aF1.0
aF1.0
aF1.0
aF1.0
aF1.0
aF1.0
aF1.0
aF0.9998290890446078
aF0.9989745342676466
aF0.9965817808921552
aF0.9923090070073491
aF0.9820543496838148
aF0.9685523842078277
aF0.9413775423004614
aF0.9025807554264228
aF0.8687403862587592
aF0.8444710305930611
aF0.8431037429499231
aF0.864296701418561
aF0.8936933857460263
aF0.9242864467612374
aF0.9507776448470346
aF0.9721415142710648
aF0.987865322167151
aF0.9943599384720561
aF0.9974363356691164
aF0.9989745342676466
aF0.9994872671338233
aF1.0
aF1.0
aF1.0
aF1.0
aF1.0
aF1.0
aF0.9996581780892155
aF0.9984618014014698
aF0.991454452230388
aF0.9777815757990087
aF0.9511194667578192
aF0.9013843787386772
aF0.8166125448641258
aF0.6985130746880875
aF0.5732353443855751
aF0.4710305930610152
aF0.39958981370705865
aF0.38625875918646385
aF0.4344556486070757
aF0.5332421808237908
aF0.6508289181336524
aF0.7742266279268502
aF0.8641257904631687
aF0.9259955563151598
aF0.9608613912151769
aF0.984447103059306
aF0.9943599384720561
aF0.9988036233122544
aF1.0
aF1.0
aF1.0
aF1.0
aF1.0
aF0.9998290890446078
aF0.9972654247137241
aF0.989403520765681
aF0.968039651341651
aF0.9222355152965305
aF0.8513074688087506
aF0.7427790121346778
aF0.5925482823448983
aF0.4460775935737481
aF0.3216544180481969
aF0.24371902238933515
aF0.20902409844471032
aF0.21586053666039992
aF0.2580755426422834
aF0.34660741753546404
aF0.46744146299777817
aF0.6087848231071612
aF0.740728080669971
aF0.8449837634592378
aF0.9155699880362331
aF0.9613741240813536
aF0.9853016578362673
aF0.9967526918475474
aF0.9996581780892155
aF1.0
aF1.0
aF1.0
aF1.0
aF0.9977781575799008
aF0.9902580755426423
aF0.9704324047171423
aF0.9225773372073149
aF0.8453255853700222
aF0.7337207314988891
aF0.5884464194154845
aF0.4377029567595283
aF0.3305417877285934
aF0.2809776106648436
aF0.2982396171594599
aF0.3151598017432917
aF0.3360109383011451
aF0.34165099982908903
aF0.35139292428644675
aF0.4206118612203042
aF0.5252093659203555
aF0.661938130234148
aF0.7841394633396
aF0.8731840710989575
aF0.9371047684156555
aF0.981541616817638
aF0.9958981370705863
aF0.9996581780892155
aF1.0
aF1.0
aF1.0
aF0.9988036233122544
aF0.9945308494274483
aF0.9801743291745001
aF0.9456503161852675
aF0.8769441121175867
aF0.7820885318748931
aF0.6371560417022731
aF0.48333618184925653
aF0.3881387796957785
aF0.3500256366433088
aF0.40608443001196376
aF0.5050418731840711
aF0.5652025294821398
aF0.5674243719022389
aF0.5245257220987866
aF0.4520594770124765
aF0.42881558707913175
aF0.5062382498718168
aF0.6231413433601094
aF0.7422662792685011
aF0.8458383182361989
aF0.9253119124935908
aF0.973679712869595
aF0.9948726713382328
aF0.9994872671338233
aF1.0
aF1.0
aF1.0
aF0.9988036233122544
aF0.9917962741411724
aF0.9740215347803794
aF0.9285592206460435
aF0.8547256879165954
aF0.7320116219449667
aF0.5853700222184242
aF0.4513758331909075
aF0.39753888224235173
aF0.44812852503845496
aF0.5720389676978295
aF0.6921893693385746
aF0.7480772517518373
aF0.6940693898478892
aF0.5947701247649975
aF0.47461972312425227
aF0.4264228337036404
aF0.49136899675269186
aF0.6163049051444197
aF0.7436335669116391
aF0.8475474277901214
aF0.9277046658690822
aF0.9770979319774398
aF0.9943599384720561
aF0.9993163561784311
aF1.0
aF1.0
aF1.0
aF0.9989745342676466
aF0.9902580755426423
aF0.9700905828063578
aF0.9229191591180995
aF0.839514612886686
aF0.7161169030934883
aF0.5766535634934199
aF0.45171765510169204
aF0.4192445735771663
aF0.5019654759870108
aF0.6463852332934541
aF0.7600410186292942
aF0.7641428815587079
aF0.6668945479405229
aF0.5277730302512391
aF0.41650999829089047
aF0.4137754230046146
aF0.5193983934370193
aF0.6610835754571868
aF0.7904631686891129
aF0.8848060160656298
aF0.9478721586053666
aF0.9811997949068535
aF0.9965817808921552
aF0.9993163561784311
aF1.0
aF1.0
aF1.0
aF0.9994872671338233
aF0.9923090070073491
aF0.9716287814048881
aF0.9282173987352589
aF0.853700222184242
aF0.735771662963596
aF0.5857118441292087
aF0.4633396000683644
aF0.4189027516663818
aF0.4713724149717997
aF0.5956246795419586
aF0.671850965646898
aF0.643479747051786
aF0.5139292428644676
aF0.3889933344727397
aF0.3599384720560588
aF0.45103401128012305
aF0.6051956930439241
aF0.7547427790121347
aF0.8615621261322851
aF0.9323192616646727
aF0.9671850965646898
aF0.9888907878995044
aF0.9977781575799008
aF0.9998290890446078
aF1.0
aF1.0
aF1.0
aF0.9993163561784311
aF0.9941890275166638
aF0.9800034182191079
aF0.9449666723636985
aF0.8846351051102376
aF0.7784994018116561
aF0.6439924799179627
aF0.5036745855409331
aF0.4021534780379422
aF0.38147325243548114
aF0.44043753204580416
aF0.4850452914031789
aF0.41650999829089047
aF0.3149888907878995
aF0.3031960348658349
aF0.4086480943428474
aF0.570329858143907
aF0.7316698000341821
aF0.8530165783626731
aF0.926850111092121
aF0.9656468979661597
aF0.9846180140146984
aF0.9948726713382328
aF0.9984618014014698
aF0.9998290890446078
aF1.0
aF1.0
aF1.0
aF0.9996581780892155
aF0.9972654247137241
aF0.989403520765681
aF0.9663305417877286
aF0.9222355152965305
aF0.8412237224406084
aF0.7198769441121176
aF0.5732353443855751
aF0.4064262519227482
aF0.2843958297726884
aF0.25465732353443854
aF0.2597846521962058
aF0.20697316698000343
aF0.2179114681251068
aF0.35088019142027005
aF0.5452059477012476
aF0.7238078960861392
aF0.8497692702102205
aF0.9249700905828063
aF0.9625705007690993
aF0.9818834387284225
aF0.9928217398735258
aF0.9972654247137241
aF0.9993163561784311
aF1.0
aF1.0
aF1.0
aF1.0
aF1.0
aF0.9993163561784311
aF0.9928217398735258
aF0.981541616817638
aF0.9533413091779183
aF0.8952315843445565
aF0.7964450521278414
aF0.6340796445052128
aF0.42044095026491196
aF0.2320970774226628
aF0.13912151768928388
aF0.12220133310545206
aF0.1362160314476158
aF0.2594428302854213
aF0.48213980516151084
aF0.6949239446248504
aF0.8325072637156041
aF0.9111263031960348
aF0.9518031105793882
aF0.9750470005127329
aF0.9885489659887199
aF0.9955563151598017
aF0.9986327123568621
aF0.9998290890446078
aF1.0
aF1.0
aF1.0
aF1.0
aF1.0
aF0.9996581780892155
aF0.9967526918475474
aF0.9875235002563665
aF0.9646214322338061
aF0.9140317894377029
aF0.8114852162023586
aF0.6429670141856093
aF0.41086993676294653
aF0.1980857972996069
aF0.1215176892838831
aF0.1223722440608443
aF0.19774397538882243
aF0.36831310887027857
aF0.5899846180140147
aF0.7626046829601777
aF0.8654930781063066
aF0.9239446248504529
aF0.9586395487950777
aF0.9762433772004786
aF0.9882071440779354
aF0.9962399589813707
aF0.9989745342676466
aF1.0
aF1.0
aF1.0
aF1.0
aF1.0
aF0.9998290890446078
aF0.9996581780892155
aF0.9960690480259785
aF0.9832507263715604
aF0.9512903777132115
aF0.8844641941548453
aF0.7576482652538028
aF0.5634934199282174
aF0.34592377371389504
aF0.2076568108015724
aF0.20389676978294308
aF0.25722098786532216
aF0.32370534951290375
aF0.4529140317894377
aF0.6185267475645189
aF0.7581609981199795
aF0.848743804477867
aF0.9075371731327978
aF0.9502649119808579
aF0.9716287814048881
aF0.9851307468808751
aF0.9943599384720561
aF0.9991454452230388
aF1.0
aF1.0
aF1.0
aF1.0
aF1.0
aF1.0
aF0.9988036233122544
aF0.991454452230388
aF0.9692360280293967
aF0.912664501794565
aF0.8099470176038284
aF0.636301486925312
aF0.44864125790463166
aF0.30934882925995555
aF0.286959494103572
aF0.37737138950606736
aF0.4264228337036404
aF0.4503503674585541
aF0.5002563664330884
aF0.6103230217056913
aF0.7243206289523159
aF0.8215689625705007
aF0.8890787899504359
aF0.9348829259955563
aF0.963083233635276
aF0.9805161510852846
aF0.9928217398735258
aF0.9996581780892155
aF1.0
aF1.0
aF1.0
aF1.0
aF1.0
aF1.0
aF0.9976072466245086
aF0.9813707058622457
aF0.9444539394975218
aF0.8598530165783627
aF0.7162878140488805
aF0.5296530507605538
aF0.3826696291232268
aF0.3503674585540933
aF0.43924115535805847
aF0.5542642283370364
aF0.571013501965476
aF0.5315330712698684
aF0.5294821398051615
aF0.5988719876944112
aF0.6927021022047514
aF0.7949068535293112
aF0.8694240300803282
aF0.9251410015381986
aF0.9555631515980174
aF0.9777815757990087
aF0.9936762946504871
aF0.9996581780892155
aF1.0
aF1.0
aF1.0
aF1.0
aF1.0
aF0.9998290890446078
aF0.9953854042044095
aF0.968039651341651
aF0.9123226798837806
aF0.7921722782430354
aF0.6291232267988378
aF0.46778328490856264
aF0.39292428644676125
aF0.4592377371389506
aF0.5778499401811656
aF0.6699709451375834
aF0.6402324388993335
aF0.5634934199282174
aF0.5334130917791831
aF0.5860536660399932
aF0.669800034182191
aF0.7728593402837122
aF0.8608784823107161
aF0.9155699880362331
aF0.9518031105793882
aF0.9769270210220475
aF0.9955563151598017
aF1.0
aF1.0
aF1.0
aF1.0
aF1.0
aF1.0
aF0.9996581780892155
aF0.9929926508289182
aF0.95881045975047
aF0.8798495983592548
aF0.7438044778670313
aF0.5927191933002905
aF0.4592377371389506
aF0.4230046145957956
aF0.5156383524183901
aF0.6142539736797129
aF0.6532216715091438
aF0.6053666039993164
aF0.5289694069389848
aF0.5147837976414288
aF0.5641770637497864
aF0.6573235344385575
aF0.7648265253802768
aF0.8550675098273799
aF0.9162536318578021
aF0.958126815928901
aF0.9827379935053837
aF0.9969236028029397
aF0.9998290890446078
aF1.0
aF1.0
aF1.0
aF1.0
aF1.0
aF0.9998290890446078
aF0.9940181165612716
aF0.953170398222526
aF0.8634421466415997
aF0.734404375320458
aF0.5846863783968552
aF0.4629977781575799
aF0.4033498547256879
aF0.43257562809776107
aF0.4723978807041531
aF0.4819688942061186
aF0.4529140317894377
aF0.4308665185438387
aF0.4645359767561101
aF0.551187831139976
aF0.6615963083233636
aF0.7783284908562639
aF0.8690822081695436
aF0.9352247479063408
aF0.9692360280293967
aF0.9899162536318578
aF0.9984618014014698
aF0.9998290890446078
aF1.0
aF1.0
aF1.0
aF1.0
aF1.0
aF0.9996581780892155
aF0.9958981370705863
aF0.9635959665014527
aF0.8810459750470006
aF0.7632883267817467
aF0.6198940352076568
aF0.47667065458895913
aF0.35019654759870106
aF0.28114852162023585
aF0.24713724149717997
aF0.25499914544522306
aF0.2797812339770979
aF0.34113826696291233
aF0.4506921893693386
aF0.5840027345752863
aF0.7125277730302513
aF0.8349000170910955
aF0.9099299265082892
aF0.9572722611519399
aF0.9813707058622457
aF0.9958981370705863
aF0.9993163561784311
aF0.9998290890446078
aF1.0
aF1.0
aF1.0
aF1.0
aF1.0
aF0.9998290890446078
aF0.9982908904460776
aF0.981541616817638
aF0.9273628439582977
aF0.8374636814219791
aF0.7062040676807383
aF0.5624679541958639
aF0.4219791488634421
aF0.29379593231926165
aF0.21876602290206804
aF0.21962057767902923
aF0.29926508289181336
aF0.41873184071098957
aF0.5612715775081183
aF0.7041531362160315
aF0.8272090240984447
aF0.9044607759357375
aF0.9559049735088019
aF0.9798325072637156
aF0.9928217398735258
aF0.9979490685352931
aF0.9996581780892155
aF1.0
aF1.0
aF1.0
aF1.0
aF1.0
aF1.0
aF1.0
aF0.9998290890446078
aF0.996410869936763
aF0.9762433772004786
aF0.9350538369509486
aF0.8632712356862074
aF0.7742266279268502
aF0.6771492052640574
aF0.5956246795419586
aF0.5469150572551701
aF0.5571697145787045
aF0.611519398393437
aF0.7082549991454452
aF0.8025978465219621
aF0.8825841736455307
aF0.9386429670141856
aF0.968039651341651
aF0.9842761921039138
aF0.995043582293625
aF0.9974363356691164
aF0.9994872671338233
aF1.0
aF1.0
aF1.0
aF1.0
aF1.0
aF1.0
aF1.0
aF1.0
aF1.0
aF1.0
aF0.9979490685352931
aF0.9938472056058794
aF0.9888907878995044
aF0.9789779524867545
aF0.9695778499401811
aF0.9627414117244916
aF0.960177747393608
aF0.9569304392411554
aF0.959494103572039
aF0.967356007520082
aF0.9794906853529312
aF0.9873525893009741
aF0.9931635617843104
aF0.9960690480259785
aF0.9982908904460776
aF0.9998290890446078
aF1.0
aF0.9998290890446078
aF1.0
aF1.0
aF1.0
aF1.0
aF1.0
aF1.0
aF1.0
aF1.0
aF1.0
aF1.0
aF1.0
aF0.9998290890446078
aF0.9996581780892155
aF0.9996581780892155
aF0.9994872671338233
aF0.9993163561784311
aF0.9991454452230388
aF0.9993163561784311
aF0.9994872671338233
aF1.0
aF1.0
aF0.9998290890446078
aF0.9998290890446078
aF1.0
aF1.0
aF1.0
aF1.0
aF1.0
aF1.0
aF1.0
aF1.0
aF1.0
aF1.0
aF1.0
aF1.0
aF1.0
aF1.0
aF1.0
aF1.0
aF1.0
aF1.0
aF1.0
aF1.0
aF1.0
aF1.0
aF1.0
aF1.0
aF1.0
aF1.0
aF1.0
aF1.0
aF1.0
aF1.0
aF1.0
aF1.0
aF1.0
aF1.0
aF1.0
aF1.0
aF1.0
aa(lp13
F1.0
aF1.0
aF1.0
aF1.0
aF1.0
aF1.0
aF1.0
aF1.0
aF1.0
aF1.0
aF1.0
aF1.0
aF1.0
aF1.0
aF1.0
aF1.0
aF1.0
aF1.0
aF1.0
aF1.0
aF1.0
aF1.0
aF1.0
aF1.0
aF1.0
aF1.0
aF1.0
aF1.0
aF1.0
aF1.0
aF1.0
aF1.0
aF1.0
aF1.0
aF1.0
aF1.0
aF1.0
aF1.0
aF1.0
aF1.0
aF1.0
aF1.0
aF1.0
aF1.0
aF1.0
aF1.0
aF1.0
aF1.0
aF1.0
aF1.0
aF1.0
aF1.0
aF1.0
aF1.0
aF1.0
aF1.0
aF1.0
aF1.0
aF1.0
aF1.0
aF1.0
aF1.0
aF1.0
aF1.0
aF1.0
aF1.0
aF1.0
aF1.0
aF1.0
aF1.0
aF1.0
aF1.0
aF1.0
aF1.0
aF1.0
aF1.0
aF1.0
aF1.0
aF1.0
aF1.0
aF1.0
aF1.0
aF1.0
aF1.0
aF1.0
aF1.0
aF1.0
aF1.0
aF1.0
aF1.0
aF1.0
aF1.0
aF1.0
aF1.0
aF1.0
aF1.0
aF1.0
aF1.0
aF1.0
aF1.0
aF1.0
aF1.0
aF0.9998319045217684
aF1.0
aF1.0
aF1.0
aF1.0
aF1.0
aF1.0
aF1.0
aF1.0
aF1.0
aF1.0
aF1.0
aF1.0
aF1.0
aF1.0
aF1.0
aF1.0
aF1.0
aF1.0
aF1.0
aF0.9998319045217684
aF0.9988233316523786
aF0.998150949739452
aF0.9974785678265254
aF0.9969742813918305
aF0.9971423768700622
aF0.9976466633047572
aF0.9986552361741469
aF0.9989914271306102
aF0.9996638090435367
aF0.9996638090435367
aF1.0
aF1.0
aF1.0
aF1.0
aF1.0
aF1.0
aF1.0
aF1.0
aF1.0
aF1.0
aF1.0
aF1.0
aF1.0
aF1.0
aF1.0
aF0.9993276180870735
aF0.9978147587829888
aF0.9936123718271979
aF0.9813414019162885
aF0.9709194822659271
aF0.9581442259203228
aF0.9502437384434359
aF0.9492351655740461
aF0.9556227937468482
aF0.9655404269625147
aF0.9757942511346445
aF0.9852075979156161
aF0.9924357034795764
aF0.9968061859135989
aF0.9991595226088418
aF1.0
aF1.0
aF1.0
aF1.0
aF1.0
aF1.0
aF1.0
aF1.0
aF1.0
aF1.0
aF1.0
aF0.9989914271306102
aF0.9966380904353673
aF0.9887376029584805
aF0.9680618591359892
aF0.9300722810556395
aF0.8616574214153639
aF0.7705496722138174
aF0.6501933097999664
aF0.5521936459909228
aF0.5052950075642966
aF0.5237855101697765
aF0.6127080181543116
aF0.7194486468314002
aF0.8381240544629349
aF0.9199865523617414
aF0.9667170953101362
aF0.9895780803496386
aF0.9979828542612204
aF0.9996638090435367
aF0.9998319045217684
aF1.0
aF1.0
aF1.0
aF1.0
aF1.0
aF1.0
aF1.0
aF0.9989914271306102
aF0.9937804673054295
aF0.9788199697428139
aF0.944192301227097
aF0.8782988737602958
aF0.7666834762144898
aF0.5960665658093798
aF0.4150277357539082
aF0.26071608673726676
aF0.1654059505799294
aF0.14338544293158514
aF0.19246932257522273
aF0.3077828206421247
aF0.4876449823499748
aF0.666498571188435
aF0.8140864010758111
aF0.9122541603630863
aF0.9702471003530005
aF0.9914271306101866
aF0.9976466633047572
aF0.9996638090435367
aF1.0
aF1.0
aF1.0
aF1.0
aF1.0
aF1.0
aF0.9989914271306102
aF0.9949571356530509
aF0.9771390149604976
aF0.9413346780971592
aF0.8586317028071945
aF0.72970247100353
aF0.5316859976466634
aF0.3427466801143049
aF0.2240712724827702
aF0.19784837787863507
aF0.2334846192637418
aF0.26256513699781475
aF0.26727181038830056
aF0.3104723482938309
aF0.4020843839300723
aF0.5708522440746344
aF0.7376029584804169
aF0.8656917128929231
aF0.9483946881828879
aF0.9868885526979324
aF0.9966380904353673
aF0.9993276180870735
aF1.0
aF1.0
aF1.0
aF1.0
aF1.0
aF0.9996638090435367
aF0.9969742813918305
aF0.983358547655068
aF0.9463775424441082
aF0.8751050596738947
aF0.743990586653219
aF0.5422760127752564
aF0.34863002185241215
aF0.26491847369305765
aF0.3185409312489494
aF0.4558749369641957
aF0.5676584299882333
aF0.5868213145066398
aF0.5187426458228274
aF0.4163724995797613
aF0.39939485627836613
aF0.5155488317364263
aF0.6888552697932425
aF0.8406454866364095
aF0.9376365775760632
aF0.9838628340897629
aF0.996301899478904
aF0.9996638090435367
aF1.0
aF1.0
aF1.0
aF1.0
aF1.0
aF0.9991595226088418
aF0.9915952260884182
aF0.9652042360060514
aF0.9092284417549168
aF0.7955958984703312
aF0.6034627668515717
aF0.4059505799293999
aF0.2987056648176164
aF0.37317196167423095
aF0.5711884350310976
aF0.7512186922171794
aF0.8292149941166582
aF0.7722306269961338
aF0.6110270633719953
aF0.4299882333165238
aF0.3699781475878299
aF0.463103042528156
aF0.6638090435367289
aF0.8340897629853757
aF0.9374684820978316
aF0.9835266431332997
aF0.996301899478904
aF0.9994957135653051
aF1.0
aF1.0
aF1.0
aF1.0
aF0.9998319045217684
aF0.9974785678265254
aF0.9847033114809212
aF0.9433518238359389
aF0.8675407631534712
aF0.7123886367456715
aF0.5024373844343587
aF0.34207429820137836
aF0.3624138510674063
aF0.5535384098167759
aF0.776769204908388
aF0.8917465120188267
aF0.8804841149773072
aF0.7539082198688856
aF0.5372331484283073
aF0.3333333333333333
aF0.2872751722978652
aF0.4313329971423769
aF0.6555723651033787
aF0.8470331148092116
aF0.9455370650529501
aF0.9868885526979324
aF0.9974785678265254
aF0.9996638090435367
aF1.0
aF1.0
aF1.0
aF1.0
aF0.9996638090435367
aF0.9951252311312826
aF0.9756261556564129
aF0.9295679946209447
aF0.830727853420743
aF0.6552361741469155
aF0.445116826357371
aF0.34425953941838966
aF0.4498234997478568
aF0.6737266767523954
aF0.828878803160195
aF0.8495545469826862
aF0.7658429988233316
aF0.5940494200706001
aF0.37081862497898804
aF0.21196839805009246
aF0.24609178013111446
aF0.4499915952260884
aF0.7070095814422592
aF0.8798117330643805
aF0.9579761304420911
aF0.9892418893931754
aF0.9984871406959153
aF1.0
aF1.0
aF1.0
aF1.0
aF1.0
aF0.9998319045217684
aF0.9947890401748193
aF0.9709194822659271
aF0.922507984535216
aF0.8154311649016641
aF0.6347285258026559
aF0.4362077660110943
aF0.36459909228441756
aF0.4743654395696756
aF0.635569003193814
aF0.7063371995293327
aF0.6648176164061187
aF0.5510169776433014
aF0.3829214994116658
aF0.21129601613716592
aF0.13430828710707682
aF0.25634560430324427
aF0.5261388468650193
aF0.7794587325600941
aF0.9139351151454026
aF0.9737771053958648
aF0.993108085392503
aF0.9989914271306102
aF0.9998319045217684
aF1.0
aF1.0
aF1.0
aF1.0
aF0.9998319045217684
aF0.9954614220877458
aF0.9742813918305597
aF0.9250294167086905
aF0.8216506975962347
aF0.6548999831904522
aF0.4683140023533367
aF0.38493864515044546
aF0.42561775088250126
aF0.48932593713229117
aF0.49369641956631366
aF0.4479744494873088
aF0.36661623802319715
aF0.26138846865019333
aF0.14136829719280553
aF0.12405446293494705
aF0.32761808707345774
aF0.6406118675407632
aF0.8502269288956127
aF0.9445284921835603
aF0.9825180702639099
aF0.994452849218356
aF0.9993276180870735
aF0.9998319045217684
aF1.0
aF1.0
aF1.0
aF1.0
aF1.0
aF0.9961338040006724
aF0.979660447133972
aF0.9408303916624643
aF0.8569507480248781
aF0.716759119179694
aF0.546142208774584
aF0.4304925197512187
aF0.3992267608001345
aF0.40040342914775595
aF0.3955286602790385
aF0.3903177004538578
aF0.36594385611027064
aF0.25298369473861154
aF0.13817448310640443
aF0.1771726340561439
aF0.4390653891410321
aF0.7349134308287107
aF0.893427466801143
aF0.9610018490502605
aF0.985711884350311
aF0.9959657085224407
aF0.9998319045217684
aF0.9998319045217684
aF1.0
aF1.0
aF1.0
aF1.0
aF1.0
aF0.9976466633047572
aF0.9873928391326273
aF0.9593208942679442
aF0.906875105059674
aF0.8060178181206925
aF0.6765842998823332
aF0.5627836611195158
aF0.499075474869726
aF0.4800806858295512
aF0.48831736426290134
aF0.5044545301731383
aF0.4515044545301731
aF0.28878803160194993
aF0.174819297360901
aF0.2713061018658598
aF0.5597579425113465
aF0.80164733568667
aF0.9181375021011935
aF0.9694066229618423
aF0.9862161707850059
aF0.9973104723482938
aF0.9998319045217684
aF1.0
aF1.0
aF1.0
aF1.0
aF1.0
aF1.0
aF0.9986552361741469
aF0.9941166582618928
aF0.9791561606992772
aF0.9502437384434359
aF0.8949403261052278
aF0.8236678433350143
aF0.7473524962178517
aF0.6952428979660447
aF0.6821314506639772
aF0.6841485964027567
aF0.6554042696251471
aF0.5172297865187426
aF0.32106236342242395
aF0.2533198856950748
aF0.39401580097495376
aF0.649016641452345
aF0.8409816775928728
aF0.9300722810556395
aF0.9717599596570852
aF0.9895780803496386
aF0.9971423768700622
aF0.9998319045217684
aF0.9998319045217684
aF1.0
aF1.0
aF1.0
aF1.0
aF0.9998319045217684
aF0.9994957135653051
aF0.9968061859135989
aF0.9910909396537233
aF0.9768028240040343
aF0.9546142208774584
aF0.9251975121869221
aF0.8905698436712053
aF0.8633383761976803
aF0.843166918809884
aF0.8102202050764834
aF0.711716254832745
aF0.5212640779963019
aF0.365775760632039
aF0.34913430828710706
aF0.5091612035636242
aF0.7081862497898807
aF0.861153134980669
aF0.935451336359052
aF0.9739452008740965
aF0.9895780803496386
aF0.9964699949571356
aF0.9998319045217684
aF0.9994957135653051
aF1.0
aF1.0
aF1.0
aF1.0
aF1.0
aF0.9994957135653051
aF0.9988233316523786
aF0.9957976130442091
aF0.9914271306101866
aF0.9825180702639099
aF0.9726004370482434
aF0.9589847033114809
aF0.9428475374012439
aF0.911413682971928
aF0.8354345268112288
aF0.6915447974449487
aF0.5155488317364263
aF0.41889393175323586
aF0.45436207766011094
aF0.5923684652882838
aF0.7515548831736426
aF0.8687174315010926
aF0.9359556227937469
aF0.9742813918305597
aF0.9890737939149437
aF0.9951252311312826
aF0.9994957135653051
aF0.9994957135653051
aF1.0
aF1.0
aF1.0
aF1.0
aF1.0
aF0.9998319045217684
aF0.9989914271306102
aF0.9971423768700622
aF0.9957976130442091
aF0.9920995125231131
aF0.9860480753067743
aF0.9781475878298874
aF0.9544461253992268
aF0.8989746175827871
aF0.7905530341233821
aF0.6348966212808875
aF0.5163893091275845
aF0.48125735417717264
aF0.5421079172970247
aF0.6510337871911246
aF0.7786182551689359
aF0.8744326777609682
aF0.9369641956631367
aF0.9736090099176332
aF0.9880652210455538
aF0.9951252311312826
aF0.9979828542612204
aF0.9989914271306102
aF1.0
aF1.0
aF1.0
aF1.0
aF1.0
aF1.0
aF0.9993276180870735
aF0.9976466633047572
aF0.9961338040006724
aF0.992603798957808
aF0.9847033114809212
aF0.9643637586148932
aF0.9226760800134476
aF0.8421583459404942
aF0.7251638930912758
aF0.5989241889393175
aF0.5405950579929399
aF0.5515212640779963
aF0.610690872415532
aF0.695579088922508
aF0.7971087577744159
aF0.8788031601949907
aF0.9352832408808203
aF0.9694066229618423
aF0.9867204572197008
aF0.994452849218356
aF0.9973104723482938
aF0.9993276180870735
aF1.0
aF1.0
aF1.0
aF1.0
aF1.0
aF0.9998319045217684
aF0.9994957135653051
aF0.9986552361741469
aF0.9956295175659775
aF0.9899142713061019
aF0.9695747184400739
aF0.9359556227937469
aF0.8693898134140191
aF0.7769373003866196
aF0.6663304757102034
aF0.5960665658093798
aF0.5774079677256682
aF0.6098503950243739
aF0.6562447470163053
aF0.7184400739620104
aF0.8080349638594722
aF0.8819969742813918
aF0.9337703815767355
aF0.9660447133972097
aF0.9835266431332997
aF0.9922676080013447
aF0.9971423768700622
aF0.9994957135653051
aF1.0
aF1.0
aF1.0
aF1.0
aF1.0
aF0.9998319045217684
aF0.9996638090435367
aF0.9978147587829888
aF0.9920995125231131
aF0.9793242561775088
aF0.951084215834594
aF0.9038493864515045
aF0.8268616574214154
aF0.7328962850899311
aF0.6560766515380736
aF0.6132123045890066
aF0.6266599428475375
aF0.6542276012775257
aF0.691880988401412
aF0.7404605816103547
aF0.812237350815263
aF0.8789712556732224
aF0.9288956127080181
aF0.9635232812237351
aF0.9815094973945201
aF0.9914271306101866
aF0.9976466633047572
aF0.9998319045217684
aF1.0
aF1.0
aF1.0
aF1.0
aF1.0
aF1.0
aF0.9994957135653051
aF0.9959657085224407
aF0.9882333165237855
aF0.9692385274836107
aF0.9373003866195999
aF0.8840141200201714
aF0.8026559085560598
aF0.7291981845688351
aF0.6772566817952597
aF0.6611195158850227
aF0.683140023533367
aF0.7071776769204908
aF0.731551521264078
aF0.7650025214321735
aF0.8245083207261724
aF0.8821650697596235
aF0.9290637081862498
aF0.9646999495713565
aF0.982013783829215
aF0.9915952260884182
aF0.9984871406959153
aF0.9998319045217684
aF1.0
aF1.0
aF1.0
aF1.0
aF1.0
aF1.0
aF0.9994957135653051
aF0.9957976130442091
aF0.9887376029584805
aF0.9737771053958648
aF0.9416708690536224
aF0.8947722306269962
aF0.8382921499411666
aF0.7868549336022861
aF0.7528996469994957
aF0.7508825012607161
aF0.7744158682131451
aF0.7913935115145403
aF0.8004706673390486
aF0.8265254664649521
aF0.8692217179357875
aF0.9122541603630863
aF0.9480584972264247
aF0.9756261556564129
aF0.989409984871407
aF0.9957976130442091
aF0.9994957135653051
aF0.9998319045217684
aF1.0
aF1.0
aF1.0
aF1.0
aF1.0
aF1.0
aF0.9991595226088418
aF0.9983190452176837
aF0.9961338040006724
aF0.9934442763489663
aF0.9845352160026896
aF0.9720961506135485
aF0.9583123213985544
aF0.9411665826189276
aF0.92805513531686
aF0.9257017986216171
aF0.9302403765338713
aF0.9401580097495378
aF0.9421751554883173
aF0.9509161203563624
aF0.9623466128761137
aF0.9726004370482434
aF0.9830223566986048
aF0.9936123718271979
aF0.9986552361741469
aF0.9996638090435367
aF1.0
aF1.0
aF1.0
aF1.0
aF1.0
aF1.0
aF1.0
aF1.0
aF1.0
aF1.0
aF1.0
aF0.9998319045217684
aF0.9998319045217684
aF0.9996638090435367
aF0.9991595226088418
aF0.9991595226088418
aF0.9988233316523786
aF0.9993276180870735
aF0.9978147587829888
aF0.9988233316523786
aF0.9989914271306102
aF0.9993276180870735
aF0.9993276180870735
aF0.9991595226088418
aF0.9991595226088418
aF0.9996638090435367
aF0.9998319045217684
aF1.0
aF1.0
aF1.0
aF1.0
aF1.0
aaa.