(lp0
(lp1
I0
aI1
aI2
aI3
aI4
aI5
aI6
aI7
aI8
aI9
aa(lp2
F0.09871666666666666
aF0.11236666666666667
aF0.0993
aF0.10218333333333333
aF0.09736666666666667
aF0.09035
aF0.09863333333333334
aF0.10441666666666667
aF0.09751666666666667
aF0.09915
aa(lp3
(lp4
F1.0
aF1.0
aF1.0
aF1.0
aF1.0
aF1.0
aF1.0
aF1.0
aF1.0
aF1.0
aF1.0
aF1.0
aF1.0
aF1.0
aF1.0
aF1.0
aF1.0
aF1.0
aF0.9998311666385278
aF0.9986493331082222
aF0.9957791659631944
aF0.9930778321796387
aF0.9920648320108053
aF0.9969609994934999
aF0.9984804997467499
aF0.9996623332770556
aF1.0
aF1.0
aF1.0
aF1.0
aF1.0
aF0.9972986662164444
aF0.9815971635995273
aF0.9110248185041364
aF0.7408407901401317
aF0.5476954246159041
aF0.5054870842478474
aF0.6657099442849908
aF0.8762451460408577
aF0.982103663683944
aF0.9996623332770556
aF1.0
aF1.0
aF1.0
aF0.9979739996623332
aF0.9809218301536383
aF0.8784399797399967
aF0.6182677697112949
aF0.32973155495525913
aF0.1836906972817829
aF0.15144352524058755
aF0.24126287354381226
aF0.5564747594124599
aF0.8770893128482188
aF0.9981428330238055
aF1.0
aF1.0
aF1.0
aF0.995610332601722
aF0.9187911531318589
aF0.6560864426810737
aF0.35100455850075973
aF0.2630423771737295
aF0.37143339523889923
aF0.41009623501603915
aF0.2843153807192301
aF0.3175755529292588
aF0.7026844504474085
aF0.9863244977207496
aF1.0
aF1.0
aF1.0
aF0.9807529967921661
aF0.7754516292419382
aF0.41482356913726154
aF0.2738477123079521
aF0.49400641566773595
aF0.747762957960493
aF0.805841634306939
aF0.5546175924362654
aF0.2741853790308965
aF0.5338510889751815
aF0.9596488266081378
aF1.0
aF1.0
aF0.9998311666385278
aF0.9356744892790816
aF0.5725139287523214
aF0.27435421239236873
aF0.43508357251392876
aF0.7977376329562722
aF0.948674658112443
aF0.9361809893634983
aF0.6746581124430188
aF0.3093027182171197
aF0.4832010805335134
aF0.936012156002026
aF1.0
aF1.0
aF0.9998311666385278
aF0.8411278068546345
aF0.3910180651696775
aF0.2848218808036468
aF0.6756711126118521
aF0.9496876582812763
aF0.985142664190444
aF0.9231808205301367
aF0.617592436265406
aF0.31470538578423096
aF0.5360459226743205
aF0.9316224886037481
aF1.0
aF1.0
aF0.9998311666385278
aF0.7475941245990207
aF0.3138612189768698
aF0.37227756204626034
aF0.8185041364173561
aF0.9716359952726659
aF0.9512071585345264
aF0.7681917946986324
aF0.43001857166976193
aF0.3462772243795374
aF0.6668917778152963
aF0.9716359952726659
aF1.0
aF1.0
aF0.9991558331926389
aF0.749957791659632
aF0.3136923856153976
aF0.338510889751815
aF0.7116326186054365
aF0.8239068039844674
aF0.6866452811075469
aF0.43457707242951205
aF0.3005233834205639
aF0.525240587540098
aF0.8527773087962182
aF0.9949349991558332
aF1.0
aF1.0
aF0.9996623332770556
aF0.8591929765321628
aF0.4430187405031234
aF0.18419719736619955
aF0.2464967077494513
aF0.3152118858686476
aF0.26000337666722945
aF0.2593280432213405
aF0.5066689177781529
aF0.8006078001013001
aF0.9733243288873882
aF0.9996623332770556
aF1.0
aF1.0
aF1.0
aF0.9780516630086105
aF0.7813607968934662
aF0.45044740840790143
aF0.22860037143339523
aF0.21087286847881143
aF0.3717710619618437
aF0.6390342731723788
aF0.8688164781360797
aF0.9800776633462772
aF0.9981428330238055
aF0.9998311666385278
aF1.0
aF1.0
aF1.0
aF0.9996623332770556
aF0.9949349991558332
aF0.9694411615735269
aF0.9230119871686645
aF0.9098429849738309
aF0.9528954921492487
aF0.9854803309133885
aF0.9986493331082222
aF0.9998311666385278
aF1.0
aF1.0
aF1.0
aF1.0
aF1.0
aF1.0
aF1.0
aF1.0
aF1.0
aF1.0
aF1.0
aF1.0
aF1.0
aF1.0
aF1.0
aF1.0
aF1.0
aa(lp5
F1.0
aF1.0
aF1.0
aF1.0
aF1.0
aF1.0
aF1.0
aF0.9998516760605162
aF1.0
aF1.0
aF1.0
aF1.0
aF1.0
aF1.0
aF1.0
aF1.0
aF1.0
aF1.0
aF1.0
aF0.9998516760605162
aF0.999110056363097
aF0.9973301690892911
aF0.9980717887867102
aF0.9992583803025809
aF0.9998516760605162
aF1.0
aF1.0
aF1.0
aF1.0
aF1.0
aF0.9998516760605162
aF0.9995550281815485
aF0.998220112726194
aF0.9789380005932957
aF0.8694749332542272
aF0.7220409374072976
aF0.7217442895283299
aF0.7921981607831504
aF0.9115989320676358
aF0.9850192821121329
aF0.9997033521210323
aF1.0
aF1.0
aF1.0
aF1.0
aF0.9988134084841294
aF0.9956986057549688
aF0.969000296647879
aF0.7837436962325719
aF0.494660338178582
aF0.4912488875704539
aF0.6916345298131118
aF0.8995846929694453
aF0.9856125778700682
aF0.9995550281815485
aF1.0
aF1.0
aF1.0
aF0.9998516760605162
aF0.9985167606051617
aF0.9959952536339365
aF0.9765648175615544
aF0.7654998516760605
aF0.33432215959655887
aF0.4197567487392465
aF0.7754375556214773
aF0.9641056066449125
aF0.9968851972708395
aF0.9997033521210323
aF1.0
aF1.0
aF1.0
aF0.9998516760605162
aF0.9992583803025809
aF0.996440225452388
aF0.9787896766538119
aF0.7356867398398101
aF0.115247700978938
aF0.4777514090774251
aF0.9117472560071196
aF0.9954019578760012
aF0.9994067042420647
aF1.0
aF1.0
aF1.0
aF1.0
aF1.0
aF0.9995550281815485
aF0.9962919015129041
aF0.984870958172649
aF0.5977454761198457
aF0.017947196677543756
aF0.6837733610204687
aF0.9900622960545832
aF0.999110056363097
aF1.0
aF1.0
aF1.0
aF1.0
aF1.0
aF1.0
aF1.0
aF0.9959952536339365
aF0.9718184514980718
aF0.30020765351527734
aF0.03159299911005636
aF0.9009196084247998
aF0.9988134084841294
aF0.9998516760605162
aF0.9998516760605162
aF1.0
aF1.0
aF1.0
aF1.0
aF1.0
aF0.9995550281815485
aF0.9905072678730347
aF0.8356570750519133
aF0.20973005043013943
aF0.2273805992287155
aF0.9390388608721447
aF0.9970335212103233
aF0.999110056363097
aF0.9995550281815485
aF0.9998516760605162
aF1.0
aF1.0
aF1.0
aF0.9998516760605162
aF0.9949569860575497
aF0.934440818748146
aF0.6487689113022842
aF0.24310293681400177
aF0.4676653811925245
aF0.9160486502521507
aF0.9905072678730347
aF0.995550281815485
aF0.9985167606051617
aF0.9995550281815485
aF0.9998516760605162
aF1.0
aF1.0
aF0.9974784930287749
aF0.9666271136161376
aF0.8231978641352714
aF0.5585879560961139
aF0.3837140314446752
aF0.5625927024621774
aF0.8771877781073866
aF0.9811628596855533
aF0.9943636902996144
aF0.9989617324236132
aF0.9997033521210323
aF1.0
aF1.0
aF1.0
aF0.9936220706021952
aF0.9482349451201424
aF0.7930881044200534
aF0.617917531889647
aF0.5713438148917235
aF0.6423909819044794
aF0.8817858202313853
aF0.9857609018095521
aF0.9974784930287749
aF0.9997033521210323
aF1.0
aF1.0
aF1.0
aF1.0
aF0.9998516760605162
aF0.9962919015129041
aF0.9822011272619401
aF0.9692969445268467
aF0.9727083951349748
aF0.9767131415010383
aF0.9959952536339365
aF0.9994067042420647
aF0.9998516760605162
aF1.0
aF1.0
aF1.0
aF1.0
aF1.0
aF1.0
aF1.0
aF1.0
aF1.0
aF1.0
aF1.0
aF1.0
aF1.0
aF1.0
aF1.0
aF1.0
aF1.0
aa(lp6
F1.0
aF1.0
aF1.0
aF1.0
aF1.0
aF0.9998321584424303
aF1.0
aF0.9998321584424303
aF0.9998321584424303
aF1.0
aF1.0
aF1.0
aF1.0
aF1.0
aF1.0
aF1.0
aF1.0
aF0.9973145350788856
aF0.9827123195703256
aF0.9498153742866734
aF0.914065122524337
aF0.9038267875125882
aF0.9266532393420611
aF0.969452836522323
aF0.9954682779456193
aF0.9998321584424303
aF0.9998321584424303
aF1.0
aF1.0
aF1.0
aF0.99513259483048
aF0.9494796911715341
aF0.8126888217522659
aF0.6070829137294395
aF0.41943605236656595
aF0.34071836186639815
aF0.43789862369922794
aF0.6915072171869755
aF0.8934206109432695
aF0.9885867740852635
aF0.9996643168848607
aF1.0
aF1.0
aF0.9998321584424303
aF0.9793554884189325
aF0.8566633098355153
aF0.6609600537092984
aF0.4696206780798926
aF0.38469284994964753
aF0.35246727089627394
aF0.32846592816381337
aF0.46945283652232295
aF0.7578046324269889
aF0.9566968781470292
aF0.9998321584424303
aF1.0
aF1.0
aF0.999496475327291
aF0.9744880832494126
aF0.8600201409869084
aF0.7512588116817724
aF0.6941926821080899
aF0.7114803625377644
aF0.6693521315877812
aF0.4808660624370594
aF0.43554884189325277
aF0.7051023833501174
aF0.9390735146022156
aF1.0
aF1.0
aF1.0
aF0.9996643168848607
aF0.9879154078549849
aF0.94175897952333
aF0.9123867069486404
aF0.900973481033904
aF0.9075193017791205
aF0.7833165491775763
aF0.4845585767035918
aF0.43084927828130243
aF0.7324605572339711
aF0.9546827794561934
aF0.9986572675394427
aF1.0
aF1.0
aF0.9998321584424303
aF0.9953004363880497
aF0.9803625377643505
aF0.9521651560926485
aF0.9202752601544142
aF0.8402148371936892
aF0.6339375629405841
aF0.410204766700235
aF0.4909365558912387
aF0.8157099697885196
aF0.973313192346425
aF0.9937898623699228
aF0.9996643168848607
aF1.0
aF0.999496475327291
aF0.9859013091641491
aF0.9068479355488419
aF0.7777777777777778
aF0.6319234642497482
aF0.4637462235649547
aF0.33585095669687814
aF0.3591809331990601
aF0.5953340046995637
aF0.8571668345082243
aF0.9548506210137631
aF0.9806982208794898
aF0.9991607922121517
aF1.0
aF0.9969788519637462
aF0.9093655589123867
aF0.685464921114468
aF0.4837193689157435
aF0.3541456864719705
aF0.23313192346424974
aF0.24051695199731454
aF0.37378314870762
aF0.5861027190332326
aF0.7675394427660289
aF0.8648875461564284
aF0.9441087613293051
aF0.9988251090970124
aF1.0
aF0.9855656260490098
aF0.8029540114132259
aF0.5167841557569655
aF0.35565626049009735
aF0.27576367908694194
aF0.2465592480698221
aF0.2938905673044646
aF0.37428667338032895
aF0.46408190668009397
aF0.5877811346089292
aF0.7418596844578718
aF0.9236320913058074
aF0.9991607922121517
aF1.0
aF0.9865726753944276
aF0.8230949983215844
aF0.527190332326284
aF0.2880161127895267
aF0.2537764350453172
aF0.35532057737495804
aF0.4872440416247063
aF0.5323934206109433
aF0.5297079556898288
aF0.6275595837529372
aF0.8036253776435045
aF0.9563611950318899
aF0.9998321584424303
aF1.0
aF0.9983215844243034
aF0.9521651560926485
aF0.8185632762672037
aF0.684961396441759
aF0.6693521315877812
aF0.75730110775428
aF0.8251090970124203
aF0.8355152735817388
aF0.8360187982544478
aF0.8815038603558241
aF0.947129909365559
aF0.9941255454850622
aF1.0
aF1.0
aF1.0
aF0.9998321584424303
aF0.9974823766364552
aF0.9936220208123532
aF0.9917757636790869
aF0.9890902987579725
aF0.9892581403155422
aF0.9921114467942262
aF0.9949647532729103
aF0.9953004363880497
aF0.9984894259818731
aF0.9996643168848607
aF1.0
aF1.0
aF1.0
aF1.0
aF1.0
aF1.0
aF1.0
aF1.0
aF1.0
aF1.0
aF1.0
aF1.0
aF1.0
aF1.0
aF1.0
aa(lp7
F1.0
aF1.0
aF1.0
aF1.0
aF1.0
aF1.0
aF1.0
aF1.0
aF1.0
aF1.0
aF1.0
aF1.0
aF1.0
aF1.0
aF1.0
aF1.0
aF1.0
aF0.9996737889414451
aF0.9983689447072256
aF0.9947806230631219
aF0.9877670853041918
aF0.9866253465992497
aF0.9898874571847985
aF0.9954330451802316
aF0.9993475778828902
aF1.0
aF1.0
aF1.0
aF1.0
aF1.0
aF0.9913554069482955
aF0.9450334366335019
aF0.8316750937856794
aF0.6519328005219377
aF0.4973087587669222
aF0.4723536127874735
aF0.6145816343174033
aF0.8090034252161148
aF0.9478062306312184
aF0.9957592562387865
aF1.0
aF1.0
aF1.0
aF0.9975534170608383
aF0.9456858587506116
aF0.7884521285271571
aF0.5499918447235361
aF0.35067688794650137
aF0.2604795302560757
aF0.19931495677703473
aF0.23780786168651116
aF0.49274180394715383
aF0.7902462893492089
aF0.9753710650791062
aF0.9998368944707225
aF1.0
aF1.0
aF0.9964116783558963
aF0.9451965421627793
aF0.8494535964769205
aF0.7638231936062633
aF0.7347904093948785
aF0.7215788615234057
aF0.5605937041265698
aF0.34904583265372696
aF0.4646876529114337
aF0.7791551133583429
aF0.9701516881422281
aF1.0
aF1.0
aF1.0
aF0.9977165225901158
aF0.9823846028380362
aF0.9611808840319687
aF0.9349208938183005
aF0.8489642798890883
aF0.6321970314793671
aF0.3441526667754037
aF0.27988908824009134
aF0.5866905888109607
aF0.8900668732670037
aF0.9915185124775729
aF1.0
aF1.0
aF1.0
aF0.9996737889414451
aF0.995596150709509
aF0.9791224922524874
aF0.8541836568259664
aF0.5139455227532214
aF0.20714402218235198
aF0.12151361931169467
aF0.25803294731691406
aF0.6351329310063611
aF0.9246452454738215
aF0.9952699396509541
aF1.0
aF1.0
aF1.0
aF0.9995106834121676
aF0.9933126732996248
aF0.9729244821399445
aF0.8290654053172403
aF0.5609199151851247
aF0.42603164247267983
aF0.39732506931984996
aF0.33860707877997065
aF0.43598107975860384
aF0.7935083999347577
aF0.9727613766106671
aF0.9996737889414451
aF1.0
aF1.0
aF0.9947806230631219
aF0.971619637905725
aF0.9577556679171424
aF0.9308432555863644
aF0.8975697276137661
aF0.8758766922198663
aF0.8073723699233404
aF0.5400424074376121
aF0.36193116946664494
aF0.6747675746207796
aF0.9300277279399771
aF0.9990213668243354
aF1.0
aF1.0
aF0.9807535475452618
aF0.8974066220844886
aF0.8479856467134236
aF0.8708204208122655
aF0.9112705920730713
aF0.9200782906540532
aF0.7977491436959713
aF0.47838851737073884
aF0.37155439569401405
aF0.6754199967378894
aF0.9298646224106997
aF0.9990213668243354
aF1.0
aF1.0
aF0.974229326374164
aF0.8349372043712282
aF0.6540531724025445
aF0.5570053824824661
aF0.5837546892839667
aF0.5614092317729571
aF0.3983037024955146
aF0.27189691730549664
aF0.4811613113684554
aF0.8034578372206818
aF0.9750448540205513
aF0.9996737889414451
aF1.0
aF1.0
aF0.990050562714076
aF0.9070298483118577
aF0.693361604958408
aF0.41803947153808513
aF0.22997879628119394
aF0.18169955961507095
aF0.2640678519001794
aF0.5173707388680476
aF0.8047626814549014
aF0.9582449845049748
aF0.9972272060022834
aF1.0
aF1.0
aF1.0
aF0.9996737889414451
aF0.9907029848311858
aF0.954656662860871
aF0.8830533355080737
aF0.8070461588647855
aF0.7954656662860871
aF0.8717990539879302
aF0.944707225574947
aF0.9879301908334692
aF0.9980427336486707
aF0.9998368944707225
aF1.0
aF1.0
aF1.0
aF1.0
aF1.0
aF1.0
aF0.9998368944707225
aF1.0
aF0.9996737889414451
aF0.9995106834121676
aF0.9995106834121676
aF0.9995106834121676
aF0.9998368944707225
aF1.0
aF1.0
aF1.0
aa(lp8
F1.0
aF1.0
aF1.0
aF1.0
aF1.0
aF1.0
aF1.0
aF1.0
aF1.0
aF1.0
aF1.0
aF1.0
aF1.0
aF1.0
aF1.0
aF1.0
aF1.0
aF1.0
aF1.0
aF0.999486477233824
aF0.999657651489216
aF0.999486477233824
aF0.99914412872304
aF0.999486477233824
aF0.998630605956864
aF0.9993153029784321
aF1.0
aF1.0
aF1.0
aF1.0
aF0.998630605956864
aF0.9934953782951044
aF0.9801437863745293
aF0.969188634029442
aF0.9623416638137624
aF0.9669633687093461
aF0.9433413214652516
aF0.9162957891133173
aF0.9142416980486134
aF0.9512153372132831
aF0.9940089010612804
aF1.0
aF1.0
aF0.999828825744608
aF0.9873331051009928
aF0.9503594659363231
aF0.8524477918521054
aF0.7603560424512154
aF0.7831222184183498
aF0.8632317699418007
aF0.7627524820267032
aF0.6326600479287915
aF0.7071208490243067
aF0.8503937007874016
aF0.9782608695652174
aF1.0
aF1.0
aF0.99914412872304
aF0.9774049982882574
aF0.8966107497432386
aF0.6858952413557001
aF0.5484423142759329
aF0.6641561109209175
aF0.84251968503937
aF0.6489216021910305
aF0.452755905511811
aF0.656453269428278
aF0.8871961656966793
aF0.9912701129750086
aF0.999828825744608
aF1.0
aF0.9982882574460801
aF0.968503937007874
aF0.8200958575830195
aF0.49811708319068815
aF0.4188634029441972
aF0.734337555631633
aF0.8885655597398151
aF0.4934953782951044
aF0.35107839780896954
aF0.7372475179732968
aF0.9585758301951387
aF0.9977747346799042
aF1.0
aF1.0
aF0.9979459089352961
aF0.9515576857240671
aF0.6898322492297159
aF0.28551865799383774
aF0.4171516603902773
aF0.7915097569325573
aF0.7384457377610407
aF0.2437521396781924
aF0.3548442314275933
aF0.7983567271482369
aF0.9662786716877781
aF0.9960629921259843
aF1.0
aF1.0
aF0.9981170831906881
aF0.9245121533721329
aF0.5547757617254365
aF0.1970215679561794
aF0.24803149606299213
aF0.3625470729202328
aF0.2483738445737761
aF0.07959602875727491
aF0.3408079424854502
aF0.7480314960629921
aF0.9212598425196851
aF0.9905854159534406
aF1.0
aF1.0
aF0.99914412872304
aF0.936836699760356
aF0.6850393700787402
aF0.46473810338925026
aF0.3933584388907908
aF0.35227661759671347
aF0.19582334816843547
aF0.17168777815816502
aF0.5294419719274222
aF0.8348168435467306
aF0.9563505648750428
aF0.9958918178705922
aF0.999828825744608
aF1.0
aF0.999828825744608
aF0.9828825744608011
aF0.9308456008216365
aF0.8950701814447107
aF0.8546730571722013
aF0.6821294077370763
aF0.4274221157137966
aF0.4609722697706265
aF0.7591578226634714
aF0.9354673057172201
aF0.9887024991441288
aF0.999657651489216
aF1.0
aF1.0
aF0.999828825744608
aF0.9981170831906881
aF0.9933242040397124
aF0.9744950359465936
aF0.8829168093118795
aF0.6811023622047244
aF0.5547757617254365
aF0.5997945908935296
aF0.8036631290653886
aF0.9418007531667237
aF0.9885313248887367
aF0.9989729544676481
aF1.0
aF1.0
aF1.0
aF1.0
aF0.9933242040397124
aF0.953440602533379
aF0.8396097226977063
aF0.7083190688120506
aF0.6545703526189661
aF0.6905169462512838
aF0.8243752139678192
aF0.937007874015748
aF0.9871619308456008
aF0.9993153029784321
aF1.0
aF1.0
aF1.0
aF1.0
aF0.9965765148921603
aF0.9784320438206093
aF0.9418007531667237
aF0.9104758644299897
aF0.8885655597398151
aF0.9164669633687094
aF0.9515576857240671
aF0.9871619308456008
aF0.9972612119137282
aF1.0
aF1.0
aF1.0
aF1.0
aF1.0
aF1.0
aF0.999828825744608
aF0.999828825744608
aF1.0
aF0.999828825744608
aF1.0
aF1.0
aF1.0
aF1.0
aF1.0
aF1.0
aa(lp9
F1.0
aF1.0
aF1.0
aF1.0
aF1.0
aF1.0
aF1.0
aF1.0
aF1.0
aF1.0
aF1.0
aF1.0
aF1.0
aF1.0
aF1.0
aF1.0
aF1.0
aF1.0
aF0.9998155321896329
aF0.9996310643792659
aF0.9988931931377975
aF0.9966795794133924
aF0.9952038369304557
aF0.9933591588267847
aF0.9955727725511898
aF0.9988931931377975
aF1.0
aF1.0
aF1.0
aF1.0
aF1.0
aF0.9946504334993543
aF0.9739900387382402
aF0.9169894853348091
aF0.8443091680501752
aF0.7830658550083011
aF0.750415052573326
aF0.7719977863862756
aF0.8184836745987825
aF0.8889503781590112
aF0.9786017339974175
aF1.0
aF1.0
aF1.0
aF0.9974174506548608
aF0.965504519461354
aF0.8607268031728463
aF0.6587345508208817
aF0.46873270614277807
aF0.39125622578859987
aF0.39180962921970114
aF0.4371887105700055
aF0.5379081350304372
aF0.6758900571850213
aF0.882309536985796
aF0.9983397897066962
aF1.0
aF1.0
aF0.9952038369304557
aF0.9306401033019738
aF0.7375023058476295
aF0.47887843571296806
aF0.4012174875484228
aF0.4805386460062719
aF0.5522966242390703
aF0.6150156797638812
aF0.6790260099612617
aF0.752444198487364
aF0.8907950562626822
aF0.9983397897066962
aF1.0
aF1.0
aF0.9891163991883416
aF0.8948533480907581
aF0.6098505810736027
aF0.33314886552296624
aF0.41984873639549897
aF0.6408411732152739
aF0.7755026747832503
aF0.872348275225973
aF0.9262128758531636
aF0.9496402877697842
aF0.9760191846522782
aF0.9998155321896329
aF1.0
aF0.9996310643792659
aF0.9852425751706327
aF0.8655229662423907
aF0.5034126544917912
aF0.20900202914591404
aF0.32650802434975096
aF0.509131156613171
aF0.645083932853717
aF0.8046485888212507
aF0.9455819959417082
aF0.991698948533481
aF0.9992621287585316
aF1.0
aF1.0
aF1.0
aF0.9905921416712784
aF0.9070282235749861
aF0.6474820143884892
aF0.4438295517432208
aF0.4541597491237779
aF0.4882862940416897
aF0.5237041136321712
aF0.6342003320420586
aF0.8491053311197196
aF0.9693783434790629
aF0.9964951116030253
aF1.0
aF1.0
aF0.9996310643792659
aF0.9798930086699871
aF0.9144069359896698
aF0.8775133739162516
aF0.8354547131525549
aF0.7961630695443646
aF0.6825308983582364
aF0.5475004611695259
aF0.5694521306032098
aF0.7819590481460985
aF0.93912562257886
aF0.9952038369304557
aF1.0
aF1.0
aF0.9992621287585316
aF0.9383877513373916
aF0.7635122671093895
aF0.8016971038553773
aF0.8649695628112894
aF0.8245711123408965
aF0.6683268769599705
aF0.5089466888028039
aF0.561888950378159
aF0.7788230953698579
aF0.9348828629404169
aF0.9940970300682531
aF1.0
aF1.0
aF0.9994465965688988
aF0.9481645452868475
aF0.6646375207526287
aF0.5015679763881202
aF0.5045194613539937
aF0.5222283711492345
aF0.44548976203652463
aF0.43054786939679024
aF0.6201807784541598
aF0.8446781036709095
aF0.9632909057369489
aF0.9990776609481645
aF1.0
aF1.0
aF1.0
aF0.985795978601734
aF0.8479985242575171
aF0.5705589374654123
aF0.3663530713890426
aF0.31636229477956096
aF0.3927319682715366
aF0.58402508762221
aF0.8208817561335547
aF0.9490868843386829
aF0.991698948533481
aF0.9996310643792659
aF1.0
aF1.0
aF0.9998155321896329
aF0.9994465965688988
aF0.9872717210846708
aF0.9267662792842649
aF0.8468917173953145
aF0.8136875115292381
aF0.8747463567607453
aF0.9466888028039108
aF0.9821066223943922
aF0.9970485150341265
aF0.9987087253274304
aF0.9996310643792659
aF1.0
aF1.0
aF1.0
aF1.0
aF1.0
aF0.9998155321896329
aF0.9994465965688988
aF0.9987087253274304
aF0.9994465965688988
aF0.9994465965688988
aF0.9996310643792659
aF0.9996310643792659
aF1.0
aF1.0
aF1.0
aa(lp10
F1.0
aF1.0
aF1.0
aF1.0
aF0.9996620479891856
aF0.9986481919567421
aF0.9986481919567421
aF0.9986481919567421
aF0.9991551199729638
aF0.9996620479891856
aF1.0
aF1.0
aF1.0
aF1.0
aF1.0
aF1.0
aF1.0
aF0.9957755998648192
aF0.9819195674214262
aF0.9406894221020615
aF0.8761405880364989
aF0.7781345049003041
aF0.7566745522135857
aF0.820209530246705
aF0.9346062859074011
aF0.9880027036160866
aF0.999324095978371
aF1.0
aF1.0
aF1.0
aF0.9989861439675566
aF0.9891855356539372
aF0.9442379182156134
aF0.8546806353497803
aF0.6819871578235891
aF0.5153768164920581
aF0.5245015207840487
aF0.7130787428185198
aF0.9016559648529908
aF0.9787090233186887
aF0.9972963839134843
aF0.9998310239945928
aF1.0
aF1.0
aF0.9979722879351132
aF0.9780331192970598
aF0.895910780669145
aF0.7347076715106455
aF0.5162216965190943
aF0.46350118283203784
aF0.6838458938830686
aF0.8948969246367016
aF0.9685704629942549
aF0.9917201757350457
aF0.9984792159513349
aF0.9998310239945928
aF1.0
aF1.0
aF0.9971274079080771
aF0.9574180466373775
aF0.82173031429537
aF0.5721527543088881
aF0.40892193308550184
aF0.6100033795201082
aF0.8884758364312267
aF0.965866846907739
aF0.9763433592429875
aF0.9913822237242311
aF0.9994930719837783
aF0.9996620479891856
aF1.0
aF1.0
aF0.9952686718485975
aF0.9239607975667455
aF0.7085163906725245
aF0.40081108482595473
aF0.44609665427509293
aF0.8009462656302805
aF0.8771544440689422
aF0.8445420750253464
aF0.8785062521122
aF0.9493071983778304
aF0.9952686718485975
aF0.9998310239945928
aF1.0
aF1.0
aF0.9903683676917878
aF0.8793511321392362
aF0.5469753295032106
aF0.3077053058465698
aF0.5664075701250423
aF0.6591753970936127
aF0.5001689760054072
aF0.4998310239945928
aF0.6508955728286583
aF0.8545116593443731
aF0.9785400473132815
aF0.9998310239945928
aF1.0
aF1.0
aF0.9868198715782359
aF0.8205474822575194
aF0.4028387968908415
aF0.30027036160865156
aF0.49509969584319025
aF0.3136194660358229
aF0.30956404190604936
aF0.3822237242311592
aF0.4880027036160865
aF0.775092936802974
aF0.9584319026698209
aF1.0
aF1.0
aF1.0
aF0.9866508955728287
aF0.7911456573166611
aF0.33727610679283543
aF0.26326461642446775
aF0.38881378844204123
aF0.42987495775599865
aF0.5441027374112876
aF0.37157823589050354
aF0.4660358229131463
aF0.8038188577222034
aF0.9700912470429199
aF1.0
aF1.0
aF1.0
aF0.9907063197026023
aF0.8460628590740115
aF0.41568097330179116
aF0.13197026022304834
aF0.27171341669482935
aF0.3629604596147347
aF0.2617438323758026
aF0.27813450490030417
aF0.6387293004393376
aF0.9114565731666103
aF0.9929030077728962
aF1.0
aF1.0
aF1.0
aF0.9983102399459277
aF0.9547144305508618
aF0.70817843866171
aF0.28033119297059816
aF0.092429874957756
aF0.11676241973639744
aF0.2985806015545793
aF0.656471781007097
aF0.9158499493071984
aF0.9895234876647516
aF0.9991551199729638
aF0.9998310239945928
aF1.0
aF1.0
aF1.0
aF0.9994930719837783
aF0.9822575194322406
aF0.9119635011828321
aF0.8186887461980399
aF0.8296721865495099
aF0.9229469415343021
aF0.981750591416019
aF0.9966204798918553
aF0.9998310239945928
aF1.0
aF1.0
aF1.0
aF1.0
aF1.0
aF1.0
aF1.0
aF1.0
aF0.9998310239945928
aF0.9996620479891856
aF0.9994930719837783
aF0.9998310239945928
aF1.0
aF1.0
aF1.0
aF1.0
aF1.0
aF1.0
aF1.0
aF1.0
aF1.0
aF1.0
aF1.0
aF1.0
aF1.0
aF1.0
aF1.0
aF1.0
aF1.0
aF1.0
aa(lp11
F1.0
aF1.0
aF1.0
aF1.0
aF1.0
aF1.0
aF1.0
aF1.0
aF1.0
aF1.0
aF1.0
aF1.0
aF1.0
aF1.0
aF1.0
aF1.0
aF1.0
aF1.0
aF1.0
aF1.0
aF1.0
aF1.0
aF1.0
aF1.0
aF1.0
aF1.0
aF1.0
aF1.0
aF1.0
aF1.0
aF0.999680766161213
aF0.9990422984836392
aF0.9963288108539505
aF0.9958499600957702
aF0.9948922585794094
aF0.9960095770151636
aF0.9976057462090981
aF0.9990422984836392
aF0.9995211492418197
aF1.0
aF1.0
aF1.0
aF1.0
aF0.9976057462090981
aF0.9795690343176376
aF0.9211492418196329
aF0.8376695929768555
aF0.7559457302474062
aF0.7144453312051078
aF0.6908220271348763
aF0.6889066241021549
aF0.7717478052673583
aF0.9027932960893855
aF0.978611332801277
aF0.9995211492418197
aF1.0
aF0.9992019154030327
aF0.967438148443735
aF0.8620909816440543
aF0.6510774142059058
aF0.3939345570630487
aF0.21755786113328013
aF0.1647246608140463
aF0.1564245810055866
aF0.13743016759776536
aF0.27438148443735033
aF0.6430965682362331
aF0.9192338387869115
aF0.9963288108539505
aF1.0
aF0.9990422984836392
aF0.9671189146049481
aF0.8679968076616121
aF0.6825219473264166
aF0.4893854748603352
aF0.47166799680766164
aF0.5889864325618516
aF0.6060654429369513
aF0.3189146049481245
aF0.23176376695929768
aF0.6421388667198723
aF0.9391859537110934
aF0.998244213886672
aF1.0
aF1.0
aF0.9886671987230646
aF0.9403032721468476
aF0.8346368715083798
aF0.7474860335195531
aF0.8392657621707901
aF0.9452513966480447
aF0.8458100558659218
aF0.3192338387869114
aF0.31667996807661614
aF0.7899441340782123
aF0.9766959297685555
aF0.9988826815642458
aF1.0
aF1.0
aF0.9977653631284916
aF0.9709497206703911
aF0.9192338387869115
aF0.8986432561851556
aF0.9388667198723064
aF0.9391859537110934
aF0.6384676775738228
aF0.18068635275339187
aF0.48300079808459695
aF0.8831604150039905
aF0.9784517158818835
aF0.998244213886672
aF1.0
aF1.0
aF0.9995211492418197
aF0.9889864325618516
aF0.9683958499600958
aF0.9473264166001596
aF0.9205107741420591
aF0.8116520351157223
aF0.33599361532322425
aF0.24852354349561054
aF0.708220271348763
aF0.9345570630486831
aF0.9849960095770152
aF0.9990422984836392
aF1.0
aF1.0
aF0.9998403830806065
aF0.9971268954509178
aF0.9929768555466879
aF0.9784517158818835
aF0.9174780526735834
aF0.6012769353551476
aF0.2601755786113328
aF0.5141260973663209
aF0.8732641660015962
aF0.9784517158818835
aF0.996488427773344
aF0.999680766161213
aF1.0
aF1.0
aF1.0
aF0.9993615323224262
aF0.9950518754988029
aF0.9650438946528332
aF0.792657621707901
aF0.45538707102952913
aF0.40558659217877097
aF0.7158818834796489
aF0.9323224261771748
aF0.9893056664006384
aF0.9993615323224262
aF0.9995211492418197
aF1.0
aF1.0
aF1.0
aF0.9958499600957702
aF0.9754189944134078
aF0.8697525937749402
aF0.6341580207501996
aF0.4652833200319234
aF0.5658419792498005
aF0.803511572226656
aF0.9511572226656025
aF0.9915403032721468
aF0.9993615323224262
aF0.9998403830806065
aF1.0
aF1.0
aF1.0
aF0.9937749401436552
aF0.9444533120510774
aF0.8062250598563447
aF0.6282521947326417
aF0.5848363926576217
aF0.6960893854748603
aF0.8528332003192338
aF0.9602553870710295
aF0.9926576217079011
aF0.9993615323224262
aF1.0
aF1.0
aF1.0
aF1.0
aF0.9993615323224262
aF0.9877094972067039
aF0.9570630486831604
aF0.9221069433359936
aF0.9114126097366321
aF0.9286512370311253
aF0.9610534716679968
aF0.9867517956903432
aF0.9979249800478851
aF0.9995211492418197
aF1.0
aF1.0
aa(lp12
F1.0
aF1.0
aF1.0
aF1.0
aF1.0
aF1.0
aF1.0
aF1.0
aF1.0
aF1.0
aF1.0
aF1.0
aF1.0
aF1.0
aF1.0
aF1.0
aF1.0
aF1.0
aF1.0
aF1.0
aF0.9994872671338233
aF0.9986327123568621
aF0.9988036233122544
aF0.9994872671338233
aF0.9993163561784311
aF0.9998290890446078
aF1.0
aF1.0
aF1.0
aF1.0
aF1.0
aF0.9986327123568621
aF0.9849598359254829
aF0.9309519740215347
aF0.786190394804307
aF0.6269013843787387
aF0.5973337890958811
aF0.7446590326439925
aF0.900529823961716
aF0.9748760895573406
aF0.9965817808921552
aF1.0
aF1.0
aF1.0
aF0.9974363356691164
aF0.9654759870107674
aF0.8340454623141343
aF0.5646897966159631
aF0.28371218595111947
aF0.19654759870107674
aF0.2191078448128525
aF0.3431891984276192
aF0.6135703298581439
aF0.8489147154332592
aF0.973679712869595
aF0.9993163561784311
aF1.0
aF0.9993163561784311
aF0.9861562126132285
aF0.9013843787386772
aF0.6665527260297385
aF0.3830114510340113
aF0.39582977268842934
aF0.6101521107502991
aF0.5744317210733207
aF0.3978807041531362
aF0.5270893864296702
aF0.7889249700905828
aF0.9562467954195863
aF0.9988036233122544
aF1.0
aF1.0
aF0.9830798154161682
aF0.8851478379764143
aF0.6320287130405059
aF0.3871133139634251
aF0.5161510852845668
aF0.7007349171081866
aF0.4862416680909246
aF0.34900017091095537
aF0.6111775764826526
aF0.867885831481798
aF0.9738506238249872
aF0.9993163561784311
aF1.0
aF0.9996581780892155
aF0.990770808408819
aF0.9306101521107503
aF0.7313279781233977
aF0.43257562809776107
aF0.27345752862758504
aF0.2922577337207315
aF0.2257733720731499
aF0.5267475645188857
aF0.841565544351393
aF0.9618868569475303
aF0.9935053836950949
aF0.9996581780892155
aF1.0
aF1.0
aF0.9981199794906853
aF0.9738506238249872
aF0.8545547769612032
aF0.49905998974534266
aF0.10904118954024954
aF0.08357545718680567
aF0.3722440608443001
aF0.791146812510682
aF0.9383011451034011
aF0.9832507263715604
aF0.9977781575799008
aF1.0
aF1.0
aF1.0
aF0.9986327123568621
aF0.9579559049735088
aF0.7716629635959665
aF0.3599384720560588
aF0.20458041360451204
aF0.310374294992309
aF0.5033327636301487
aF0.7778157579900872
aF0.9181336523671167
aF0.9733378909588105
aF0.9967526918475474
aF1.0
aF1.0
aF1.0
aF0.987865322167151
aF0.8760895573406255
aF0.5510169201845838
aF0.32780721244231753
aF0.5313621603144761
aF0.5392240642625192
aF0.519911126303196
aF0.7152623483165271
aF0.88634421466416
aF0.9644505212784139
aF0.9981199794906853
aF1.0
aF1.0
aF1.0
aF0.9781233977097932
aF0.7981541616817638
aF0.48419073662621775
aF0.38796786874038625
aF0.5245257220987866
aF0.4650487096222868
aF0.4782088531874893
aF0.6957784994018117
aF0.889933344727397
aF0.9740215347803794
aF0.9993163561784311
aF1.0
aF1.0
aF1.0
aF0.9882071440779354
aF0.8461801401469834
aF0.5622970432404717
aF0.2688429328319945
aF0.15945992138096052
aF0.26798837805503334
aF0.5392240642625192
aF0.8106306614253974
aF0.9518031105793882
aF0.9936762946504871
aF0.9998290890446078
aF1.0
aF1.0
aF1.0
aF1.0
aF0.984447103059306
aF0.9059989745342677
aF0.780550333276363
aF0.7289352247479064
aF0.8094342847376517
aF0.9237737138950607
aF0.9798325072637156
aF0.9962399589813707
aF0.9994872671338233
aF1.0
aF1.0
aF1.0
aF1.0
aF1.0
aF1.0
aF1.0
aF1.0
aF0.9998290890446078
aF1.0
aF1.0
aF1.0
aF1.0
aF1.0
aF1.0
aF1.0
aa(lp13
F1.0
aF1.0
aF1.0
aF1.0
aF1.0
aF1.0
aF1.0
aF1.0
aF1.0
aF1.0
aF1.0
aF1.0
aF1.0
aF1.0
aF1.0
aF1.0
aF1.0
aF1.0
aF1.0
aF1.0
aF1.0
aF1.0
aF1.0
aF1.0
aF1.0
aF1.0
aF1.0
aF1.0
aF1.0
aF1.0
aF1.0
aF1.0
aF0.9996638090435367
aF0.9956295175659775
aF0.9840309295679946
aF0.9732728189611699
aF0.9806690200033619
aF0.9914271306101866
aF0.9976466633047572
aF1.0
aF1.0
aF1.0
aF1.0
aF1.0
aF1.0
aF0.9947890401748193
aF0.9502437384434359
aF0.7961001849050261
aF0.48882165069759625
aF0.26105227769373
aF0.34896621280887546
aF0.6681795259707514
aF0.9088922507984535
aF0.9902504622625652
aF0.9994957135653051
aF1.0
aF1.0
aF1.0
aF0.9954614220877458
aF0.9384770549672213
aF0.7137334005715247
aF0.30912758446797783
aF0.22138174483106404
aF0.3541771726340561
aF0.311817112119684
aF0.42259203227433184
aF0.7784501596907043
aF0.9675575727012944
aF0.9983190452176837
aF1.0
aF1.0
aF0.9994957135653051
aF0.9729366280047067
aF0.8191292654227601
aF0.4224239367961002
aF0.33669524289796604
aF0.7478567826525466
aF0.8198016473356867
aF0.44057824844511684
aF0.33417381072449154
aF0.744494873087914
aF0.9678937636577576
aF0.9986552361741469
aF1.0
aF1.0
aF0.9979828542612204
aF0.9502437384434359
aF0.7219700790048748
aF0.3365271474197344
aF0.5222726508656917
aF0.7562615565641284
aF0.5453017313834257
aF0.16859976466633048
aF0.3190452176836443
aF0.8245083207261724
aF0.9828542612203732
aF0.9998319045217684
aF1.0
aF1.0
aF0.9978147587829888
aF0.9567994620944696
aF0.7557572701294335
aF0.4084720121028744
aF0.3709867204572197
aF0.3698100521095983
aF0.24390653891410322
aF0.08287107076819633
aF0.5093292990418558
aF0.9181375021011935
aF0.9900823667843335
aF0.9998319045217684
aF1.0
aF1.0
aF0.9996638090435367
aF0.9815094973945201
aF0.8922507984535216
aF0.6896957471844007
aF0.5521936459909228
aF0.5545469826861658
aF0.3388804841149773
aF0.20709362918137503
aF0.7071776769204908
aF0.9492351655740461
aF0.9924357034795764
aF0.9998319045217684
aF1.0
aF1.0
aF0.9994957135653051
aF0.996301899478904
aF0.9776433013951925
aF0.9409984871406959
aF0.8925869894099848
aF0.7565977475205917
aF0.4056143889729366
aF0.43637586148932594
aF0.7930744662968566
aF0.9561270801815431
aF0.9924357034795764
aF0.9993276180870735
aF1.0
aF1.0
aF1.0
aF0.998150949739452
aF0.9946209446965877
aF0.9803328290468987
aF0.9056984367120524
aF0.6658261892755085
aF0.4783997310472348
aF0.5967389477223063
aF0.8221549840309296
aF0.9527651706169104
aF0.9914271306101866
aF0.9986552361741469
aF1.0
aF1.0
aF1.0
aF0.9993276180870735
aF0.9912590351319549
aF0.9396537233148429
aF0.7898806522104556
aF0.5997646663304758
aF0.5866532190284082
aF0.673894772230627
aF0.8366111951588502
aF0.9468818288788031
aF0.9872247436543957
aF0.9988233316523786
aF1.0
aF1.0
aF1.0
aF0.998150949739452
aF0.979660447133972
aF0.911917969406623
aF0.7740796772566818
aF0.6841485964027567
aF0.7255000840477391
aF0.7613044209110775
aF0.8653555219364599
aF0.9532694570516053
aF0.9910909396537233
aF0.9998319045217684
aF1.0
aF1.0
aF1.0
aF0.9998319045217684
aF0.9984871406959153
aF0.9951252311312826
aF0.9852075979156161
aF0.978315683308119
aF0.9852075979156161
aF0.9872247436543957
aF0.9909228441754917
aF0.9966380904353673
aF1.0
aF1.0
aF1.0
aaa.